(lp0
(S'cppflags'
p1
ccopy_reg
_reconstructor
p2
(cino.utils
SpaceList
p3
c__builtin__
list
p4
(lp5
S'-mmcu=atmega328p'
p6
aS'-DF_CPU=16000000L'
p7
aS'-DARDUINO=105'
p8
aS'-I/usr/share/arduino/hardware/arduino/cores/arduino'
p9
aS'-ffunction-sections'
p10
aS'-fdata-sections'
p11
aS'-g'
p12
aS'-Os'
p13
aS'-w'
p14
aS'-I/usr/share/arduino/hardware/arduino/variants/standard'
p15
aS'-I/usr/share/arduino/hardware/arduino/cores/arduino'
p16
aS'-I/usr/share/arduino/hardware/arduino/cores/arduino/avr-libc'
p17
atp18
Rp19
tp20
a(S'version.txt'
p21
S'/usr/share/arduino/lib/version.txt'
p22
tp23
a(S'used_libs'
p24
(lp25
S'/usr/share/arduino/hardware/arduino/cores/arduino'
p26
atp27
a(S'cc'
p28
S'/usr/share/arduino/hardware/tools/avr/bin/avr-gcc'
p29
tp30
a(S'make'
p31
S'/usr/share/arduino/hardware/tools/avr/bin/make'
p32
tp33
a(S'build_dir'
p34
S'.build/uno'
p35
tp36
a(S'arduino_core_dir'
p37
g26
tp38
a(S'boards.txt'
p39
(lp40
S'/usr/share/arduino/hardware/arduino/boards.txt'
p41
aS'/usr/share/arduino/hardware/attiny/boards.txt'
p42
atp43
a(S'cxxflags'
p44
g2
(g3
g4
(lp45
S'-fno-exceptions'
p46
atp47
Rp48
tp49
a(S'arduino_variants_dir'
p50
S'/usr/share/arduino/hardware/arduino/variants'
p51
tp52
a(S'deps'
p53
g2
(g3
g4
(lp54
S'.build/uno/src/dependencies.d'
p55
aS'.build/uno/arduino/dependencies.d'
p56
atp57
Rp58
tp59
a(S'ar'
p60
S'/usr/share/arduino/hardware/tools/avr/bin/avr-ar'
p61
tp62
a(S'names'
p63
(dp64
S'cpp'
p65
S'%s.cpp'
p66
sS'obj'
p67
S'%s.o'
p68
sg53
S'%s.d'
p69
sS'lib'
p70
S'lib%s.a'
p71
stp72
a(S'cflags'
p73
g2
(g3
g4
(lp74
tp75
Rp76
tp77
a(S'ldflags'
p78
g2
(g3
g4
(lp79
g6
aS'-Wl,-Os'
p80
aS'-Wl,--gc-sections'
p81
atp82
Rp83
tp84
a(S'arduino_libraries_dir'
p85
S'/usr/share/arduino/libraries'
p86
tp87
a(S'arduino_lib_version'
p88
g2
(cino.environment
Version
p89
c__builtin__
tuple
p90
(I1
I0
I5
tp91
tp92
Rp93
tp94
a(S'objcopy'
p95
S'/usr/share/arduino/hardware/tools/avr/bin/avr-objcopy'
p96
tp97
a(S'board_models'
p98
cino.environment
BoardModels
p99
((lp100
(lp101
S'uno'
p102
a(dp103
S'build'
p104
(dp105
S'core'
p106
S'arduino'
p107
sS'mcu'
p108
S'atmega328p'
p109
sS'f_cpu'
p110
S'16000000L'
p111
sS'variant'
p112
S'standard'
p113
ssS'bootloader'
p114
(dp115
S'extended_fuses'
p116
S'0x05'
p117
sS'high_fuses'
p118
S'0xde'
p119
sS'low_fuses'
p120
S'0xff'
p121
sS'lock_bits'
p122
S'0x0F'
p123
sS'file'
p124
S'optiboot_atmega328.hex'
p125
sS'path'
p126
S'optiboot'
p127
sS'unlock_bits'
p128
S'0x3F'
p129
ssS'upload'
p130
(dp131
S'speed'
p132
S'115200'
p133
sS'maximum_size'
p134
S'32256'
p135
sS'protocol'
p136
S'arduino'
p137
ssS'name'
p138
S'Arduino Uno'
p139
sS'_coredir'
p140
S'/usr/share/arduino/hardware/arduino'
p141
saa(lp142
S'atmega328'
p143
a(dp144
S'build'
p145
(dp146
S'core'
p147
S'arduino'
p148
sS'mcu'
p149
S'atmega328p'
p150
sS'f_cpu'
p151
S'16000000L'
p152
sS'variant'
p153
S'standard'
p154
ssS'bootloader'
p155
(dp156
S'extended_fuses'
p157
S'0x05'
p158
sS'high_fuses'
p159
S'0xDA'
p160
sS'low_fuses'
p161
S'0xFF'
p162
sS'lock_bits'
p163
S'0x0F'
p164
sS'file'
p165
S'ATmegaBOOT_168_atmega328.hex'
p166
sS'path'
p167
S'atmega'
p168
sS'unlock_bits'
p169
S'0x3F'
p170
ssS'upload'
p171
(dp172
S'speed'
p173
S'57600'
p174
sS'maximum_size'
p175
S'30720'
p176
sS'protocol'
p177
S'arduino'
p178
ssS'name'
p179
S'Arduino Duemilanove w/ ATmega328'
p180
sg140
S'/usr/share/arduino/hardware/arduino'
p181
saa(lp182
S'diecimila'
p183
a(dp184
S'build'
p185
(dp186
S'core'
p187
S'arduino'
p188
sS'mcu'
p189
S'atmega168'
p190
sS'f_cpu'
p191
S'16000000L'
p192
sS'variant'
p193
S'standard'
p194
ssS'bootloader'
p195
(dp196
S'extended_fuses'
p197
S'0x00'
p198
sS'high_fuses'
p199
S'0xdd'
p200
sS'low_fuses'
p201
S'0xff'
p202
sS'lock_bits'
p203
S'0x0F'
p204
sS'file'
p205
S'ATmegaBOOT_168_diecimila.hex'
p206
sS'path'
p207
S'atmega'
p208
sS'unlock_bits'
p209
S'0x3F'
p210
ssS'upload'
p211
(dp212
S'speed'
p213
S'19200'
p214
sS'maximum_size'
p215
S'14336'
p216
sS'protocol'
p217
S'arduino'
p218
ssS'name'
p219
S'Arduino Diecimila or Duemilanove w/ ATmega168'
p220
sg140
S'/usr/share/arduino/hardware/arduino'
p221
saa(lp222
S'nano328'
p223
a(dp224
S'build'
p225
(dp226
S'core'
p227
S'arduino'
p228
sS'mcu'
p229
S'atmega328p'
p230
sS'f_cpu'
p231
S'16000000L'
p232
sS'variant'
p233
S'eightanaloginputs'
p234
ssS'bootloader'
p235
(dp236
S'extended_fuses'
p237
S'0x05'
p238
sS'high_fuses'
p239
S'0xDA'
p240
sS'low_fuses'
p241
S'0xFF'
p242
sS'lock_bits'
p243
S'0x0F'
p244
sS'file'
p245
S'ATmegaBOOT_168_atmega328.hex'
p246
sS'path'
p247
S'atmega'
p248
sS'unlock_bits'
p249
S'0x3F'
p250
ssS'upload'
p251
(dp252
S'speed'
p253
S'57600'
p254
sS'maximum_size'
p255
S'30720'
p256
sS'protocol'
p257
S'arduino'
p258
ssS'name'
p259
S'Arduino Nano w/ ATmega328'
p260
sg140
S'/usr/share/arduino/hardware/arduino'
p261
saa(lp262
S'nano'
p263
a(dp264
S'build'
p265
(dp266
S'core'
p267
S'arduino'
p268
sS'mcu'
p269
S'atmega168'
p270
sS'f_cpu'
p271
S'16000000L'
p272
sS'variant'
p273
S'eightanaloginputs'
p274
ssS'bootloader'
p275
(dp276
S'extended_fuses'
p277
S'0x00'
p278
sS'high_fuses'
p279
S'0xdd'
p280
sS'low_fuses'
p281
S'0xff'
p282
sS'lock_bits'
p283
S'0x0F'
p284
sS'file'
p285
S'ATmegaBOOT_168_diecimila.hex'
p286
sS'path'
p287
S'atmega'
p288
sS'unlock_bits'
p289
S'0x3F'
p290
ssS'upload'
p291
(dp292
S'speed'
p293
S'19200'
p294
sS'maximum_size'
p295
S'14336'
p296
sS'protocol'
p297
S'arduino'
p298
ssS'name'
p299
S'Arduino Nano w/ ATmega168'
p300
sg140
S'/usr/share/arduino/hardware/arduino'
p301
saa(lp302
S'mega2560'
p303
a(dp304
S'build'
p305
(dp306
S'core'
p307
S'arduino'
p308
sS'mcu'
p309
S'atmega2560'
p310
sS'f_cpu'
p311
S'16000000L'
p312
sS'variant'
p313
S'mega'
p314
ssS'bootloader'
p315
(dp316
S'extended_fuses'
p317
S'0xFD'
p318
sS'high_fuses'
p319
S'0xD8'
p320
sS'low_fuses'
p321
S'0xFF'
p322
sS'lock_bits'
p323
S'0x0F'
p324
sS'file'
p325
S'stk500boot_v2_mega2560.hex'
p326
sS'path'
p327
S'stk500v2'
p328
sS'unlock_bits'
p329
S'0x3F'
p330
ssS'upload'
p331
(dp332
S'speed'
p333
S'115200'
p334
sS'maximum_size'
p335
S'258048'
p336
sS'protocol'
p337
S'wiring'
p338
ssS'name'
p339
S'Arduino Mega 2560 or Mega ADK'
p340
sg140
S'/usr/share/arduino/hardware/arduino'
p341
saa(lp342
S'mega'
p343
a(dp344
S'build'
p345
(dp346
S'core'
p347
S'arduino'
p348
sS'mcu'
p349
S'atmega1280'
p350
sS'f_cpu'
p351
S'16000000L'
p352
sS'variant'
p353
S'mega'
p354
ssS'bootloader'
p355
(dp356
S'extended_fuses'
p357
S'0xF5'
p358
sS'high_fuses'
p359
S'0xDA'
p360
sS'low_fuses'
p361
S'0xFF'
p362
sS'lock_bits'
p363
S'0x0F'
p364
sS'file'
p365
S'ATmegaBOOT_168_atmega1280.hex'
p366
sS'path'
p367
S'atmega'
p368
sS'unlock_bits'
p369
S'0x3F'
p370
ssS'upload'
p371
(dp372
S'speed'
p373
S'57600'
p374
sS'maximum_size'
p375
S'126976'
p376
sS'protocol'
p377
S'arduino'
p378
ssS'name'
p379
S'Arduino Mega (ATmega1280)'
p380
sg140
S'/usr/share/arduino/hardware/arduino'
p381
saa(lp382
S'leonardo'
p383
a(dp384
S'build'
p385
(dp386
S'core'
p387
S'arduino'
p388
sS'f_cpu'
p389
S'16000000L'
p390
sS'vid'
p391
S'0x2341'
p392
sS'pid'
p393
S'0x8036'
p394
sS'variant'
p395
S'leonardo'
p396
sS'mcu'
p397
S'atmega32u4'
p398
ssS'bootloader'
p399
(dp400
S'extended_fuses'
p401
S'0xcb'
p402
sS'high_fuses'
p403
S'0xd8'
p404
sS'low_fuses'
p405
S'0xff'
p406
sS'lock_bits'
p407
S'0x2F'
p408
sS'file'
p409
S'Caterina-Leonardo.hex'
p410
sS'path'
p411
S'caterina'
p412
sS'unlock_bits'
p413
S'0x3F'
p414
ssS'upload'
p415
(dp416
S'speed'
p417
S'57600'
p418
sS'maximum_size'
p419
S'28672'
p420
sS'protocol'
p421
S'avr109'
p422
sS'disable_flushing'
p423
S'true'
p424
ssS'name'
p425
S'Arduino Leonardo'
p426
sg140
S'/usr/share/arduino/hardware/arduino'
p427
saa(lp428
S'esplora'
p429
a(dp430
S'build'
p431
(dp432
S'core'
p433
S'arduino'
p434
sS'f_cpu'
p435
S'16000000L'
p436
sS'vid'
p437
S'0x2341'
p438
sS'pid'
p439
S'0x803C'
p440
sS'variant'
p441
S'leonardo'
p442
sS'mcu'
p443
S'atmega32u4'
p444
ssS'bootloader'
p445
(dp446
S'extended_fuses'
p447
S'0xcb'
p448
sS'high_fuses'
p449
S'0xd8'
p450
sS'low_fuses'
p451
S'0xff'
p452
sS'lock_bits'
p453
S'0x2F'
p454
sS'file'
p455
S'Caterina-Esplora.hex'
p456
sS'path'
p457
S'caterina'
p458
sS'unlock_bits'
p459
S'0x3F'
p460
ssS'upload'
p461
(dp462
S'speed'
p463
S'57600'
p464
sS'maximum_size'
p465
S'28672'
p466
sS'protocol'
p467
S'avr109'
p468
sS'disable_flushing'
p469
S'true'
p470
ssS'name'
p471
S'Arduino Esplora'
p472
sg140
S'/usr/share/arduino/hardware/arduino'
p473
saa(lp474
S'micro'
p475
a(dp476
S'build'
p477
(dp478
S'core'
p479
S'arduino'
p480
sS'f_cpu'
p481
S'16000000L'
p482
sS'vid'
p483
S'0x2341'
p484
sS'pid'
p485
S'0x8037'
p486
sS'variant'
p487
S'micro'
p488
sS'mcu'
p489
S'atmega32u4'
p490
ssS'bootloader'
p491
(dp492
S'extended_fuses'
p493
S'0xcb'
p494
sS'high_fuses'
p495
S'0xd8'
p496
sS'low_fuses'
p497
S'0xff'
p498
sS'lock_bits'
p499
S'0x2F'
p500
sS'file'
p501
S'Caterina-Micro.hex'
p502
sS'path'
p503
S'caterina'
p504
sS'unlock_bits'
p505
S'0x3F'
p506
ssS'upload'
p507
(dp508
S'speed'
p509
S'57600'
p510
sS'maximum_size'
p511
S'28672'
p512
sS'protocol'
p513
S'avr109'
p514
sS'disable_flushing'
p515
S'true'
p516
ssS'name'
p517
S'Arduino Micro'
p518
sg140
S'/usr/share/arduino/hardware/arduino'
p519
saa(lp520
S'mini328'
p521
a(dp522
S'build'
p523
(dp524
S'core'
p525
S'arduino'
p526
sS'mcu'
p527
S'atmega328p'
p528
sS'f_cpu'
p529
S'16000000L'
p530
sS'variant'
p531
S'eightanaloginputs'
p532
ssS'bootloader'
p533
(dp534
S'extended_fuses'
p535
S'0x05'
p536
sS'high_fuses'
p537
S'0xd8'
p538
sS'low_fuses'
p539
S'0xff'
p540
sS'lock_bits'
p541
S'0x0F'
p542
sS'file'
p543
S'optiboot_atmega328-Mini.hex'
p544
sS'path'
p545
S'optiboot'
p546
sS'unlock_bits'
p547
S'0x3F'
p548
ssS'upload'
p549
(dp550
S'speed'
p551
S'115200'
p552
sS'maximum_size'
p553
S'28672'
p554
sS'protocol'
p555
S'arduino'
p556
ssS'name'
p557
S'Arduino Mini w/ ATmega328'
p558
sg140
S'/usr/share/arduino/hardware/arduino'
p559
saa(lp560
S'mini'
p561
a(dp562
S'build'
p563
(dp564
S'core'
p565
S'arduino'
p566
sS'mcu'
p567
S'atmega168'
p568
sS'f_cpu'
p569
S'16000000L'
p570
sS'variant'
p571
S'eightanaloginputs'
p572
ssS'bootloader'
p573
(dp574
S'extended_fuses'
p575
S'0x00'
p576
sS'high_fuses'
p577
S'0xdd'
p578
sS'low_fuses'
p579
S'0xff'
p580
sS'lock_bits'
p581
S'0x0F'
p582
sS'file'
p583
S'ATmegaBOOT_168_ng.hex'
p584
sS'path'
p585
S'atmega'
p586
sS'unlock_bits'
p587
S'0x3F'
p588
ssS'upload'
p589
(dp590
S'speed'
p591
S'19200'
p592
sS'maximum_size'
p593
S'14336'
p594
sS'protocol'
p595
S'arduino'
p596
ssS'name'
p597
S'Arduino Mini w/ ATmega168'
p598
sg140
S'/usr/share/arduino/hardware/arduino'
p599
saa(lp600
S'ethernet'
p601
a(dp602
S'build'
p603
(dp604
S'f_cpu'
p605
S'16000000L'
p606
sS'mcu'
p607
S'atmega328p'
p608
sS'variant'
p609
S'standard'
p610
sS'core'
p611
S'arduino'
p612
ssS'bootloader'
p613
(dp614
S'extended_fuses'
p615
S'0x05'
p616
sS'high_fuses'
p617
S'0xde'
p618
sS'low_fuses'
p619
S'0xff'
p620
sS'lock_bits'
p621
S'0x0F'
p622
sS'file'
p623
S'optiboot_atmega328.hex'
p624
sS'path'
p625
S'optiboot'
p626
sS'unlock_bits'
p627
S'0x3F'
p628
ssS'upload'
p629
(dp630
S'speed'
p631
S'115200'
p632
sS'maximum_size'
p633
S'32256'
p634
sS'protocol'
p635
S'arduino'
p636
ssS'name'
p637
S'Arduino Ethernet'
p638
sg140
S'/usr/share/arduino/hardware/arduino'
p639
saa(lp640
S'fio'
p641
a(dp642
S'build'
p643
(dp644
S'core'
p645
S'arduino'
p646
sS'mcu'
p647
S'atmega328p'
p648
sS'f_cpu'
p649
S'8000000L'
p650
sS'variant'
p651
S'eightanaloginputs'
p652
ssS'bootloader'
p653
(dp654
S'extended_fuses'
p655
S'0x05'
p656
sS'high_fuses'
p657
S'0xDA'
p658
sS'low_fuses'
p659
S'0xFF'
p660
sS'lock_bits'
p661
S'0x0F'
p662
sS'file'
p663
S'ATmegaBOOT_168_atmega328_pro_8MHz.hex'
p664
sS'path'
p665
S'arduino:atmega'
p666
sS'unlock_bits'
p667
S'0x3F'
p668
ssS'upload'
p669
(dp670
S'speed'
p671
S'57600'
p672
sS'maximum_size'
p673
S'30720'
p674
sS'protocol'
p675
S'arduino'
p676
ssS'name'
p677
S'Arduino Fio'
p678
sg140
S'/usr/share/arduino/hardware/arduino'
p679
saa(lp680
S'bt328'
p681
a(dp682
S'build'
p683
(dp684
S'core'
p685
S'arduino'
p686
sS'mcu'
p687
S'atmega328p'
p688
sS'f_cpu'
p689
S'16000000L'
p690
sS'variant'
p691
S'eightanaloginputs'
p692
ssS'bootloader'
p693
(dp694
S'extended_fuses'
p695
S'0x05'
p696
sS'high_fuses'
p697
S'0xd8'
p698
sS'low_fuses'
p699
S'0xff'
p700
sS'lock_bits'
p701
S'0x0F'
p702
sS'file'
p703
S'ATmegaBOOT_168_atmega328_bt.hex'
p704
sS'path'
p705
S'bt'
p706
sS'unlock_bits'
p707
S'0x3F'
p708
ssS'upload'
p709
(dp710
S'speed'
p711
S'19200'
p712
sS'maximum_size'
p713
S'28672'
p714
sS'protocol'
p715
S'arduino'
p716
sS'disable_flushing'
p717
S'true'
p718
ssS'name'
p719
S'Arduino BT w/ ATmega328'
p720
sg140
S'/usr/share/arduino/hardware/arduino'
p721
saa(lp722
S'bt'
p723
a(dp724
S'build'
p725
(dp726
S'core'
p727
S'arduino'
p728
sS'mcu'
p729
S'atmega168'
p730
sS'f_cpu'
p731
S'16000000L'
p732
sS'variant'
p733
S'eightanaloginputs'
p734
ssS'bootloader'
p735
(dp736
S'extended_fuses'
p737
S'0x00'
p738
sS'high_fuses'
p739
S'0xdd'
p740
sS'low_fuses'
p741
S'0xff'
p742
sS'lock_bits'
p743
S'0x0F'
p744
sS'file'
p745
S'ATmegaBOOT_168.hex'
p746
sS'path'
p747
S'bt'
p748
sS'unlock_bits'
p749
S'0x3F'
p750
ssS'upload'
p751
(dp752
S'speed'
p753
S'19200'
p754
sS'maximum_size'
p755
S'14336'
p756
sS'protocol'
p757
S'arduino'
p758
sS'disable_flushing'
p759
S'true'
p760
ssS'name'
p761
S'Arduino BT w/ ATmega168'
p762
sg140
S'/usr/share/arduino/hardware/arduino'
p763
saa(lp764
S'LilyPadUSB'
p765
a(dp766
S'build'
p767
(dp768
S'core'
p769
S'arduino'
p770
sS'f_cpu'
p771
S'8000000L'
p772
sS'vid'
p773
S'0x1B4F'
p774
sS'pid'
p775
S'0x9208'
p776
sS'variant'
p777
S'leonardo'
p778
sS'mcu'
p779
S'atmega32u4'
p780
ssS'bootloader'
p781
(dp782
S'extended_fuses'
p783
S'0xce'
p784
sS'high_fuses'
p785
S'0xd8'
p786
sS'low_fuses'
p787
S'0xff'
p788
sS'lock_bits'
p789
S'0x2F'
p790
sS'file'
p791
S'Caterina-LilyPadUSB.hex'
p792
sS'path'
p793
S'caterina-LilyPadUSB'
p794
sS'unlock_bits'
p795
S'0x3F'
p796
ssS'upload'
p797
(dp798
S'speed'
p799
S'57600'
p800
sS'maximum_size'
p801
S'28672'
p802
sS'protocol'
p803
S'avr109'
p804
sS'disable_flushing'
p805
S'true'
p806
ssS'name'
p807
S'LilyPad Arduino USB'
p808
sg140
S'/usr/share/arduino/hardware/arduino'
p809
saa(lp810
S'lilypad328'
p811
a(dp812
S'build'
p813
(dp814
S'core'
p815
S'arduino'
p816
sS'mcu'
p817
S'atmega328p'
p818
sS'f_cpu'
p819
S'8000000L'
p820
sS'variant'
p821
S'standard'
p822
ssS'bootloader'
p823
(dp824
S'extended_fuses'
p825
S'0x05'
p826
sS'high_fuses'
p827
S'0xDA'
p828
sS'low_fuses'
p829
S'0xFF'
p830
sS'lock_bits'
p831
S'0x0F'
p832
sS'file'
p833
S'ATmegaBOOT_168_atmega328_pro_8MHz.hex'
p834
sS'path'
p835
S'atmega'
p836
sS'unlock_bits'
p837
S'0x3F'
p838
ssS'upload'
p839
(dp840
S'speed'
p841
S'57600'
p842
sS'maximum_size'
p843
S'30720'
p844
sS'protocol'
p845
S'arduino'
p846
ssS'name'
p847
S'LilyPad Arduino w/ ATmega328'
p848
sg140
S'/usr/share/arduino/hardware/arduino'
p849
saa(lp850
S'lilypad'
p851
a(dp852
S'build'
p853
(dp854
S'core'
p855
S'arduino'
p856
sS'mcu'
p857
S'atmega168'
p858
sS'f_cpu'
p859
S'8000000L'
p860
sS'variant'
p861
S'standard'
p862
ssS'bootloader'
p863
(dp864
S'extended_fuses'
p865
S'0x00'
p866
sS'high_fuses'
p867
S'0xdd'
p868
sS'low_fuses'
p869
S'0xe2'
p870
sS'lock_bits'
p871
S'0x0F'
p872
sS'file'
p873
S'LilyPadBOOT_168.hex'
p874
sS'path'
p875
S'lilypad'
p876
sS'unlock_bits'
p877
S'0x3F'
p878
ssS'upload'
p879
(dp880
S'speed'
p881
S'19200'
p882
sS'maximum_size'
p883
S'14336'
p884
sS'protocol'
p885
S'arduino'
p886
ssS'name'
p887
S'LilyPad Arduino w/ ATmega168'
p888
sg140
S'/usr/share/arduino/hardware/arduino'
p889
saa(lp890
S'pro5v328'
p891
a(dp892
S'build'
p893
(dp894
S'core'
p895
S'arduino'
p896
sS'mcu'
p897
S'atmega328p'
p898
sS'f_cpu'
p899
S'16000000L'
p900
sS'variant'
p901
S'standard'
p902
ssS'bootloader'
p903
(dp904
S'extended_fuses'
p905
S'0x05'
p906
sS'high_fuses'
p907
S'0xDA'
p908
sS'low_fuses'
p909
S'0xFF'
p910
sS'lock_bits'
p911
S'0x0F'
p912
sS'file'
p913
S'ATmegaBOOT_168_atmega328.hex'
p914
sS'path'
p915
S'atmega'
p916
sS'unlock_bits'
p917
S'0x3F'
p918
ssS'upload'
p919
(dp920
S'speed'
p921
S'57600'
p922
sS'maximum_size'
p923
S'30720'
p924
sS'protocol'
p925
S'arduino'
p926
ssS'name'
p927
S'Arduino Pro or Pro Mini (5V, 16 MHz) w/ ATmega328'
p928
sg140
S'/usr/share/arduino/hardware/arduino'
p929
saa(lp930
S'pro5v'
p931
a(dp932
S'build'
p933
(dp934
S'core'
p935
S'arduino'
p936
sS'mcu'
p937
S'atmega168'
p938
sS'f_cpu'
p939
S'16000000L'
p940
sS'variant'
p941
S'standard'
p942
ssS'bootloader'
p943
(dp944
S'extended_fuses'
p945
S'0x00'
p946
sS'high_fuses'
p947
S'0xdd'
p948
sS'low_fuses'
p949
S'0xff'
p950
sS'lock_bits'
p951
S'0x0F'
p952
sS'file'
p953
S'ATmegaBOOT_168_diecimila.hex'
p954
sS'path'
p955
S'atmega'
p956
sS'unlock_bits'
p957
S'0x3F'
p958
ssS'upload'
p959
(dp960
S'speed'
p961
S'19200'
p962
sS'maximum_size'
p963
S'14336'
p964
sS'protocol'
p965
S'arduino'
p966
ssS'name'
p967
S'Arduino Pro or Pro Mini (5V, 16 MHz) w/ ATmega168'
p968
sg140
S'/usr/share/arduino/hardware/arduino'
p969
saa(lp970
S'pro328'
p971
a(dp972
S'build'
p973
(dp974
S'core'
p975
S'arduino'
p976
sS'mcu'
p977
S'atmega328p'
p978
sS'f_cpu'
p979
S'8000000L'
p980
sS'variant'
p981
S'standard'
p982
ssS'bootloader'
p983
(dp984
S'extended_fuses'
p985
S'0x05'
p986
sS'high_fuses'
p987
S'0xDA'
p988
sS'low_fuses'
p989
S'0xFF'
p990
sS'lock_bits'
p991
S'0x0F'
p992
sS'file'
p993
S'ATmegaBOOT_168_atmega328_pro_8MHz.hex'
p994
sS'path'
p995
S'atmega'
p996
sS'unlock_bits'
p997
S'0x3F'
p998
ssS'upload'
p999
(dp1000
S'speed'
p1001
S'57600'
p1002
sS'maximum_size'
p1003
S'30720'
p1004
sS'protocol'
p1005
S'arduino'
p1006
ssS'name'
p1007
S'Arduino Pro or Pro Mini (3.3V, 8 MHz) w/ ATmega328'
p1008
sg140
S'/usr/share/arduino/hardware/arduino'
p1009
saa(lp1010
S'pro'
p1011
a(dp1012
S'build'
p1013
(dp1014
S'core'
p1015
S'arduino'
p1016
sS'mcu'
p1017
S'atmega168'
p1018
sS'f_cpu'
p1019
S'8000000L'
p1020
sS'variant'
p1021
S'standard'
p1022
ssS'bootloader'
p1023
(dp1024
S'extended_fuses'
p1025
S'0x00'
p1026
sS'high_fuses'
p1027
S'0xdd'
p1028
sS'low_fuses'
p1029
S'0xc6'
p1030
sS'lock_bits'
p1031
S'0x0F'
p1032
sS'file'
p1033
S'ATmegaBOOT_168_pro_8MHz.hex'
p1034
sS'path'
p1035
S'atmega'
p1036
sS'unlock_bits'
p1037
S'0x3F'
p1038
ssS'upload'
p1039
(dp1040
S'speed'
p1041
S'19200'
p1042
sS'maximum_size'
p1043
S'14336'
p1044
sS'protocol'
p1045
S'arduino'
p1046
ssS'name'
p1047
S'Arduino Pro or Pro Mini (3.3V, 8 MHz) w/ ATmega168'
p1048
sg140
S'/usr/share/arduino/hardware/arduino'
p1049
saa(lp1050
S'atmega168'
p1051
a(dp1052
S'build'
p1053
(dp1054
S'core'
p1055
S'arduino'
p1056
sS'mcu'
p1057
S'atmega168'
p1058
sS'f_cpu'
p1059
S'16000000L'
p1060
sS'variant'
p1061
S'standard'
p1062
ssS'bootloader'
p1063
(dp1064
S'extended_fuses'
p1065
S'0x00'
p1066
sS'high_fuses'
p1067
S'0xdd'
p1068
sS'low_fuses'
p1069
S'0xff'
p1070
sS'lock_bits'
p1071
S'0x0F'
p1072
sS'file'
p1073
S'ATmegaBOOT_168_ng.hex'
p1074
sS'path'
p1075
S'atmega'
p1076
sS'unlock_bits'
p1077
S'0x3F'
p1078
ssS'upload'
p1079
(dp1080
S'speed'
p1081
S'19200'
p1082
sS'maximum_size'
p1083
S'14336'
p1084
sS'protocol'
p1085
S'arduino'
p1086
ssS'name'
p1087
S'Arduino NG or older w/ ATmega168'
p1088
sg140
S'/usr/share/arduino/hardware/arduino'
p1089
saa(lp1090
S'atmega8'
p1091
a(dp1092
S'build'
p1093
(dp1094
S'core'
p1095
S'arduino'
p1096
sS'mcu'
p1097
S'atmega8'
p1098
sS'f_cpu'
p1099
S'16000000L'
p1100
sS'variant'
p1101
S'standard'
p1102
ssS'bootloader'
p1103
(dp1104
S'high_fuses'
p1105
S'0xca'
p1106
sS'low_fuses'
p1107
S'0xdf'
p1108
sS'lock_bits'
p1109
S'0x0F'
p1110
sS'file'
p1111
S'ATmegaBOOT-prod-firmware-2009-11-07.hex'
p1112
sS'path'
p1113
S'atmega8'
p1114
sS'unlock_bits'
p1115
S'0x3F'
p1116
ssS'upload'
p1117
(dp1118
S'speed'
p1119
S'19200'
p1120
sS'maximum_size'
p1121
S'7168'
p1122
sS'protocol'
p1123
S'arduino'
p1124
ssS'name'
p1125
S'Arduino NG or older w/ ATmega8'
p1126
sg140
S'/usr/share/arduino/hardware/arduino'
p1127
saa(lp1128
S'robotControl'
p1129
a(dp1130
S'build'
p1131
(dp1132
S'core'
p1133
S'robot'
p1134
sS'f_cpu'
p1135
S'16000000L'
p1136
sS'vid'
p1137
S'0x2341'
p1138
sS'pid'
p1139
S'0x8038'
p1140
sS'variant'
p1141
S'robot_control'
p1142
sS'mcu'
p1143
S'atmega32u4'
p1144
ssS'bootloader'
p1145
(dp1146
S'extended_fuses'
p1147
S'0xcb'
p1148
sS'high_fuses'
p1149
S'0xd8'
p1150
sS'low_fuses'
p1151
S'0xff'
p1152
sS'lock_bits'
p1153
S'0x2F'
p1154
sS'file'
p1155
S'Caterina-Robot-Control.hex'
p1156
sS'path'
p1157
S'caterina-Arduino_Robot'
p1158
sS'unlock_bits'
p1159
S'0x3F'
p1160
ssS'upload'
p1161
(dp1162
S'speed'
p1163
S'57600'
p1164
sS'maximum_size'
p1165
S'28672'
p1166
sS'protocol'
p1167
S'avr109'
p1168
sS'disable_flushing'
p1169
S'true'
p1170
ssS'name'
p1171
S'Arduino Robot Control'
p1172
sg140
S'/usr/share/arduino/hardware/arduino'
p1173
saa(lp1174
S'robotMotor'
p1175
a(dp1176
S'build'
p1177
(dp1178
S'core'
p1179
S'robot'
p1180
sS'f_cpu'
p1181
S'16000000L'
p1182
sS'vid'
p1183
S'0x2341'
p1184
sS'pid'
p1185
S'0x8039'
p1186
sS'variant'
p1187
S'robot_motor'
p1188
sS'mcu'
p1189
S'atmega32u4'
p1190
ssS'bootloader'
p1191
(dp1192
S'extended_fuses'
p1193
S'0xcb'
p1194
sS'high_fuses'
p1195
S'0xd8'
p1196
sS'low_fuses'
p1197
S'0xff'
p1198
sS'lock_bits'
p1199
S'0x2F'
p1200
sS'file'
p1201
S'Caterina-Robot-Motor.hex'
p1202
sS'path'
p1203
S'caterina-Arduino_Robot'
p1204
sS'unlock_bits'
p1205
S'0x3F'
p1206
ssS'upload'
p1207
(dp1208
S'speed'
p1209
S'57600'
p1210
sS'maximum_size'
p1211
S'28672'
p1212
sS'protocol'
p1213
S'avr109'
p1214
sS'disable_flushing'
p1215
S'true'
p1216
ssS'name'
p1217
S'Arduino Robot Motor'
p1218
sg140
S'/usr/share/arduino/hardware/arduino'
p1219
saa(lp1220
S'attiny45'
p1221
a(dp1222
S'build'
p1223
(dp1224
S'core'
p1225
S'arduino:arduino'
p1226
sS'mcu'
p1227
S'attiny45'
p1228
sS'f_cpu'
p1229
S'1000000L'
p1230
sS'variant'
p1231
S'tiny8'
p1232
ssS'bootloader'
p1233
(dp1234
S'low_fuses'
p1235
S'0x62'
p1236
sS'extended_fuses'
p1237
S'0xff'
p1238
sS'high_fuses'
p1239
S'0xdf'
p1240
ssS'upload'
p1241
(dp1242
S'maximum_size'
p1243
S'4096'
p1244
ssS'name'
p1245
S'ATtiny45 (internal 1 MHz clock)'
p1246
sg140
S'/usr/share/arduino/hardware/attiny'
p1247
saa(lp1248
S'attiny45-8'
p1249
a(dp1250
S'build'
p1251
(dp1252
S'core'
p1253
S'arduino:arduino'
p1254
sS'mcu'
p1255
S'attiny45'
p1256
sS'f_cpu'
p1257
S'8000000L'
p1258
sS'variant'
p1259
S'tiny8'
p1260
ssS'bootloader'
p1261
(dp1262
S'low_fuses'
p1263
S'0xe2'
p1264
sS'extended_fuses'
p1265
S'0xff'
p1266
sS'high_fuses'
p1267
S'0xdf'
p1268
ssS'upload'
p1269
(dp1270
S'maximum_size'
p1271
S'4096'
p1272
ssS'name'
p1273
S'ATtiny45 (internal 8 MHz clock)'
p1274
sg140
S'/usr/share/arduino/hardware/attiny'
p1275
saa(lp1276
S'attiny45-20'
p1277
a(dp1278
S'build'
p1279
(dp1280
S'core'
p1281
S'arduino:arduino'
p1282
sS'mcu'
p1283
S'attiny45'
p1284
sS'f_cpu'
p1285
S'20000000L'
p1286
sS'variant'
p1287
S'tiny8'
p1288
ssS'bootloader'
p1289
(dp1290
S'low_fuses'
p1291
S'0xfe'
p1292
sS'extended_fuses'
p1293
S'0xff'
p1294
sS'high_fuses'
p1295
S'0xdf'
p1296
ssS'upload'
p1297
(dp1298
S'maximum_size'
p1299
S'4096'
p1300
ssS'name'
p1301
S'ATtiny45 (external 20 MHz clock)'
p1302
sg140
S'/usr/share/arduino/hardware/attiny'
p1303
saa(lp1304
S'attiny85'
p1305
a(dp1306
S'build'
p1307
(dp1308
S'core'
p1309
S'arduino:arduino'
p1310
sS'mcu'
p1311
S'attiny85'
p1312
sS'f_cpu'
p1313
S'1000000L'
p1314
sS'variant'
p1315
S'tiny8'
p1316
ssS'bootloader'
p1317
(dp1318
S'low_fuses'
p1319
S'0x62'
p1320
sS'extended_fuses'
p1321
S'0xff'
p1322
sS'high_fuses'
p1323
S'0xdf'
p1324
ssS'upload'
p1325
(dp1326
S'maximum_size'
p1327
S'8192'
p1328
ssS'name'
p1329
S'ATtiny85 (internal 1 MHz clock)'
p1330
sg140
S'/usr/share/arduino/hardware/attiny'
p1331
saa(lp1332
S'attiny85-8'
p1333
a(dp1334
S'build'
p1335
(dp1336
S'core'
p1337
S'arduino:arduino'
p1338
sS'mcu'
p1339
S'attiny85'
p1340
sS'f_cpu'
p1341
S'8000000L'
p1342
sS'variant'
p1343
S'tiny8'
p1344
ssS'bootloader'
p1345
(dp1346
S'low_fuses'
p1347
S'0xe2'
p1348
sS'extended_fuses'
p1349
S'0xff'
p1350
sS'high_fuses'
p1351
S'0xdf'
p1352
ssS'upload'
p1353
(dp1354
S'maximum_size'
p1355
S'8192'
p1356
ssS'name'
p1357
S'ATtiny85 (internal 8 MHz clock)'
p1358
sg140
S'/usr/share/arduino/hardware/attiny'
p1359
saa(lp1360
S'attiny85-20'
p1361
a(dp1362
S'build'
p1363
(dp1364
S'core'
p1365
S'arduino:arduino'
p1366
sS'mcu'
p1367
S'attiny85'
p1368
sS'f_cpu'
p1369
S'20000000L'
p1370
sS'variant'
p1371
S'tiny8'
p1372
ssS'bootloader'
p1373
(dp1374
S'low_fuses'
p1375
S'0xfe'
p1376
sS'extended_fuses'
p1377
S'0xff'
p1378
sS'high_fuses'
p1379
S'0xdf'
p1380
ssS'upload'
p1381
(dp1382
S'maximum_size'
p1383
S'8192'
p1384
ssS'name'
p1385
S'ATtiny85 (external 20 MHz clock)'
p1386
sg140
S'/usr/share/arduino/hardware/attiny'
p1387
saa(lp1388
S'attiny44'
p1389
a(dp1390
S'build'
p1391
(dp1392
S'core'
p1393
S'arduino:arduino'
p1394
sS'mcu'
p1395
S'attiny44'
p1396
sS'f_cpu'
p1397
S'1000000L'
p1398
sS'variant'
p1399
S'tiny14'
p1400
ssS'bootloader'
p1401
(dp1402
S'low_fuses'
p1403
S'0x62'
p1404
sS'extended_fuses'
p1405
S'0xff'
p1406
sS'high_fuses'
p1407
S'0xdf'
p1408
ssS'upload'
p1409
(dp1410
S'maximum_size'
p1411
S'4096'
p1412
ssS'name'
p1413
S'ATtiny44 (internal 1 MHz clock)'
p1414
sg140
S'/usr/share/arduino/hardware/attiny'
p1415
saa(lp1416
S'attiny44-8'
p1417
a(dp1418
S'build'
p1419
(dp1420
S'core'
p1421
S'arduino:arduino'
p1422
sS'mcu'
p1423
S'attiny44'
p1424
sS'f_cpu'
p1425
S'8000000L'
p1426
sS'variant'
p1427
S'tiny14'
p1428
ssS'bootloader'
p1429
(dp1430
S'low_fuses'
p1431
S'0xe2'
p1432
sS'extended_fuses'
p1433
S'0xff'
p1434
sS'high_fuses'
p1435
S'0xdf'
p1436
ssS'upload'
p1437
(dp1438
S'maximum_size'
p1439
S'4096'
p1440
ssS'name'
p1441
S'ATtiny44 (internal 8 MHz clock)'
p1442
sg140
S'/usr/share/arduino/hardware/attiny'
p1443
saa(lp1444
S'attiny44-20'
p1445
a(dp1446
S'build'
p1447
(dp1448
S'core'
p1449
S'arduino:arduino'
p1450
sS'mcu'
p1451
S'attiny44'
p1452
sS'f_cpu'
p1453
S'20000000L'
p1454
sS'variant'
p1455
S'tiny14'
p1456
ssS'bootloader'
p1457
(dp1458
S'low_fuses'
p1459
S'0xfe'
p1460
sS'extended_fuses'
p1461
S'0xff'
p1462
sS'high_fuses'
p1463
S'0xdf'
p1464
ssS'upload'
p1465
(dp1466
S'maximum_size'
p1467
S'4096'
p1468
ssS'name'
p1469
S'ATtiny44 (external 20 MHz clock)'
p1470
sg140
S'/usr/share/arduino/hardware/attiny'
p1471
saa(lp1472
S'attiny84'
p1473
a(dp1474
S'build'
p1475
(dp1476
S'core'
p1477
S'arduino:arduino'
p1478
sS'mcu'
p1479
S'attiny84'
p1480
sS'f_cpu'
p1481
S'1000000L'
p1482
sS'variant'
p1483
S'tiny14'
p1484
ssS'bootloader'
p1485
(dp1486
S'low_fuses'
p1487
S'0x62'
p1488
sS'extended_fuses'
p1489
S'0xff'
p1490
sS'high_fuses'
p1491
S'0xdf'
p1492
ssS'upload'
p1493
(dp1494
S'maximum_size'
p1495
S'8192'
p1496
ssS'name'
p1497
S'ATtiny84 (internal 1 MHz clock)'
p1498
sg140
S'/usr/share/arduino/hardware/attiny'
p1499
saa(lp1500
S'attiny84-8'
p1501
a(dp1502
S'build'
p1503
(dp1504
S'core'
p1505
S'arduino:arduino'
p1506
sS'mcu'
p1507
S'attiny84'
p1508
sS'f_cpu'
p1509
S'8000000L'
p1510
sS'variant'
p1511
S'tiny14'
p1512
ssS'bootloader'
p1513
(dp1514
S'low_fuses'
p1515
S'0xe2'
p1516
sS'extended_fuses'
p1517
S'0xff'
p1518
sS'high_fuses'
p1519
S'0xdf'
p1520
ssS'upload'
p1521
(dp1522
S'maximum_size'
p1523
S'8192'
p1524
ssS'name'
p1525
S'ATtiny84 (internal 8 MHz clock)'
p1526
sg140
S'/usr/share/arduino/hardware/attiny'
p1527
saa(lp1528
S'attiny84-20'
p1529
a(dp1530
S'build'
p1531
(dp1532
S'core'
p1533
S'arduino:arduino'
p1534
sS'mcu'
p1535
S'attiny84'
p1536
sS'f_cpu'
p1537
S'20000000L'
p1538
sS'variant'
p1539
S'tiny14'
p1540
ssS'bootloader'
p1541
(dp1542
S'low_fuses'
p1543
S'0xfe'
p1544
sS'extended_fuses'
p1545
S'0xff'
p1546
sS'high_fuses'
p1547
S'0xdf'
p1548
ssS'upload'
p1549
(dp1550
S'maximum_size'
p1551
S'8192'
p1552
ssS'name'
p1553
S'ATtiny84 (external 20 MHz clock)'
p1554
sg140
S'/usr/share/arduino/hardware/attiny'
p1555
saatp1556
Rp1557
(dp1558
S'default'
p1559
S'uno'
p1560
sbtp1561
a(S'cxx'
p1562
S'/usr/share/arduino/hardware/tools/avr/bin/avr-g++'
p1563
tp1564
a.