(lp0
(S'cppflags'
p1
ccopy_reg
_reconstructor
p2
(cino.utils
SpaceList
p3
c__builtin__
list
p4
(lp5
S'-mmcu=attiny45'
p6
aS'-DF_CPU=8000000L'
p7
aS'-DARDUINO=105'
p8
aS'-I/usr/share/arduino/hardware/attiny/cores/arduino'
p9
aS'-ffunction-sections'
p10
aS'-fdata-sections'
p11
aS'-g'
p12
aS'-Os'
p13
aS'-w'
p14
aS'-I/usr/share/arduino/hardware/attiny/variants/tiny8'
p15
aS'-I/usr/share/arduino/hardware/attiny/cores/arduino'
p16
aS'-I/usr/share/arduino/hardware/attiny/cores/arduino/avr-libc'
p17
atp18
Rp19
tp20
a(S'cc'
p21
S'/usr/share/arduino/hardware/tools/avr/bin/avr-gcc'
p22
tp23
a(S'version.txt'
p24
S'/usr/share/arduino/lib/version.txt'
p25
tp26
a(S'used_libs'
p27
(lp28
S'/usr/share/arduino/hardware/attiny/cores/arduino'
p29
atp30
a(S'cxx'
p31
S'/usr/share/arduino/hardware/tools/avr/bin/avr-g++'
p32
tp33
a(S'make'
p34
S'/usr/share/arduino/hardware/tools/avr/bin/make'
p35
tp36
a(S'build_dir'
p37
S'.build/attiny45-8'
p38
tp39
a(S'arduino_core_dir'
p40
g29
tp41
a(S'boards.txt'
p42
(lp43
S'/usr/share/arduino/hardware/arduino/boards.txt'
p44
aS'/usr/share/arduino/hardware/attiny/boards.txt'
p45
atp46
a(S'cxxflags'
p47
g2
(g3
g4
(lp48
S'-fno-exceptions'
p49
atp50
Rp51
tp52
a(S'arduino_variants_dir'
p53
S'/usr/share/arduino/hardware/attiny/variants'
p54
tp55
a(S'deps'
p56
g2
(g3
g4
(lp57
S'.build/attiny45-8/src/dependencies.d'
p58
aS'.build/attiny45-8/arduino/dependencies.d'
p59
atp60
Rp61
tp62
a(S'ar'
p63
S'/usr/share/arduino/hardware/tools/avr/bin/avr-ar'
p64
tp65
a(S'names'
p66
(dp67
S'cpp'
p68
S'%s.cpp'
p69
sS'obj'
p70
S'%s.o'
p71
sS'deps'
p72
S'%s.d'
p73
sS'lib'
p74
S'lib%s.a'
p75
stp76
a(S'cflags'
p77
g2
(g3
g4
(lp78
tp79
Rp80
tp81
a(S'arduino_libraries_dir'
p82
S'/usr/share/arduino/libraries'
p83
tp84
a(S'arduino_lib_version'
p85
g2
(cino.environment
Version
p86
c__builtin__
tuple
p87
(I1
I0
I5
tp88
tp89
Rp90
tp91
a(S'objcopy'
p92
S'/usr/share/arduino/hardware/tools/avr/bin/avr-objcopy'
p93
tp94
a(S'board_models'
p95
cino.environment
BoardModels
p96
((lp97
(lp98
S'uno'
p99
a(dp100
S'bootloader'
p101
(dp102
S'extended_fuses'
p103
S'0x05'
p104
sS'high_fuses'
p105
S'0xde'
p106
sS'low_fuses'
p107
S'0xff'
p108
sS'lock_bits'
p109
S'0x0F'
p110
sS'file'
p111
S'optiboot_atmega328.hex'
p112
sS'path'
p113
S'optiboot'
p114
sS'unlock_bits'
p115
S'0x3F'
p116
ssS'upload'
p117
(dp118
S'speed'
p119
S'115200'
p120
sS'maximum_size'
p121
S'32256'
p122
sS'protocol'
p123
S'arduino'
p124
ssS'build'
p125
(dp126
S'core'
p127
S'arduino'
p128
sS'mcu'
p129
S'atmega328p'
p130
sS'f_cpu'
p131
S'16000000L'
p132
sS'variant'
p133
S'standard'
p134
ssS'name'
p135
S'Arduino Uno'
p136
sS'_coredir'
p137
S'/usr/share/arduino/hardware/arduino'
p138
saa(lp139
S'atmega328'
p140
a(dp141
S'bootloader'
p142
(dp143
S'extended_fuses'
p144
S'0x05'
p145
sS'high_fuses'
p146
S'0xDA'
p147
sS'low_fuses'
p148
S'0xFF'
p149
sS'lock_bits'
p150
S'0x0F'
p151
sS'file'
p152
S'ATmegaBOOT_168_atmega328.hex'
p153
sS'path'
p154
S'atmega'
p155
sS'unlock_bits'
p156
S'0x3F'
p157
ssS'upload'
p158
(dp159
S'speed'
p160
S'57600'
p161
sS'maximum_size'
p162
S'30720'
p163
sS'protocol'
p164
S'arduino'
p165
ssS'build'
p166
(dp167
S'core'
p168
S'arduino'
p169
sS'mcu'
p170
S'atmega328p'
p171
sS'f_cpu'
p172
S'16000000L'
p173
sS'variant'
p174
S'standard'
p175
ssS'name'
p176
S'Arduino Duemilanove w/ ATmega328'
p177
sg137
S'/usr/share/arduino/hardware/arduino'
p178
saa(lp179
S'diecimila'
p180
a(dp181
S'bootloader'
p182
(dp183
S'extended_fuses'
p184
S'0x00'
p185
sS'high_fuses'
p186
S'0xdd'
p187
sS'low_fuses'
p188
S'0xff'
p189
sS'lock_bits'
p190
S'0x0F'
p191
sS'file'
p192
S'ATmegaBOOT_168_diecimila.hex'
p193
sS'path'
p194
S'atmega'
p195
sS'unlock_bits'
p196
S'0x3F'
p197
ssS'upload'
p198
(dp199
S'speed'
p200
S'19200'
p201
sS'maximum_size'
p202
S'14336'
p203
sS'protocol'
p204
S'arduino'
p205
ssS'build'
p206
(dp207
S'core'
p208
S'arduino'
p209
sS'mcu'
p210
S'atmega168'
p211
sS'f_cpu'
p212
S'16000000L'
p213
sS'variant'
p214
S'standard'
p215
ssS'name'
p216
S'Arduino Diecimila or Duemilanove w/ ATmega168'
p217
sg137
S'/usr/share/arduino/hardware/arduino'
p218
saa(lp219
S'nano328'
p220
a(dp221
S'bootloader'
p222
(dp223
S'extended_fuses'
p224
S'0x05'
p225
sS'high_fuses'
p226
S'0xDA'
p227
sS'low_fuses'
p228
S'0xFF'
p229
sS'lock_bits'
p230
S'0x0F'
p231
sS'file'
p232
S'ATmegaBOOT_168_atmega328.hex'
p233
sS'path'
p234
S'atmega'
p235
sS'unlock_bits'
p236
S'0x3F'
p237
ssS'upload'
p238
(dp239
S'speed'
p240
S'57600'
p241
sS'maximum_size'
p242
S'30720'
p243
sS'protocol'
p244
S'arduino'
p245
ssS'build'
p246
(dp247
S'core'
p248
S'arduino'
p249
sS'mcu'
p250
S'atmega328p'
p251
sS'f_cpu'
p252
S'16000000L'
p253
sS'variant'
p254
S'eightanaloginputs'
p255
ssS'name'
p256
S'Arduino Nano w/ ATmega328'
p257
sg137
S'/usr/share/arduino/hardware/arduino'
p258
saa(lp259
S'nano'
p260
a(dp261
S'bootloader'
p262
(dp263
S'extended_fuses'
p264
S'0x00'
p265
sS'high_fuses'
p266
S'0xdd'
p267
sS'low_fuses'
p268
S'0xff'
p269
sS'lock_bits'
p270
S'0x0F'
p271
sS'file'
p272
S'ATmegaBOOT_168_diecimila.hex'
p273
sS'path'
p274
S'atmega'
p275
sS'unlock_bits'
p276
S'0x3F'
p277
ssS'upload'
p278
(dp279
S'speed'
p280
S'19200'
p281
sS'maximum_size'
p282
S'14336'
p283
sS'protocol'
p284
S'arduino'
p285
ssS'build'
p286
(dp287
S'core'
p288
S'arduino'
p289
sS'mcu'
p290
S'atmega168'
p291
sS'f_cpu'
p292
S'16000000L'
p293
sS'variant'
p294
S'eightanaloginputs'
p295
ssS'name'
p296
S'Arduino Nano w/ ATmega168'
p297
sg137
S'/usr/share/arduino/hardware/arduino'
p298
saa(lp299
S'mega2560'
p300
a(dp301
S'bootloader'
p302
(dp303
S'extended_fuses'
p304
S'0xFD'
p305
sS'high_fuses'
p306
S'0xD8'
p307
sS'low_fuses'
p308
S'0xFF'
p309
sS'lock_bits'
p310
S'0x0F'
p311
sS'file'
p312
S'stk500boot_v2_mega2560.hex'
p313
sS'path'
p314
S'stk500v2'
p315
sS'unlock_bits'
p316
S'0x3F'
p317
ssS'upload'
p318
(dp319
S'speed'
p320
S'115200'
p321
sS'maximum_size'
p322
S'258048'
p323
sS'protocol'
p324
S'wiring'
p325
ssS'build'
p326
(dp327
S'core'
p328
S'arduino'
p329
sS'mcu'
p330
S'atmega2560'
p331
sS'f_cpu'
p332
S'16000000L'
p333
sS'variant'
p334
S'mega'
p335
ssS'name'
p336
S'Arduino Mega 2560 or Mega ADK'
p337
sg137
S'/usr/share/arduino/hardware/arduino'
p338
saa(lp339
S'mega'
p340
a(dp341
S'bootloader'
p342
(dp343
S'extended_fuses'
p344
S'0xF5'
p345
sS'high_fuses'
p346
S'0xDA'
p347
sS'low_fuses'
p348
S'0xFF'
p349
sS'lock_bits'
p350
S'0x0F'
p351
sS'file'
p352
S'ATmegaBOOT_168_atmega1280.hex'
p353
sS'path'
p354
S'atmega'
p355
sS'unlock_bits'
p356
S'0x3F'
p357
ssS'upload'
p358
(dp359
S'speed'
p360
S'57600'
p361
sS'maximum_size'
p362
S'126976'
p363
sS'protocol'
p364
S'arduino'
p365
ssS'build'
p366
(dp367
S'core'
p368
S'arduino'
p369
sS'mcu'
p370
S'atmega1280'
p371
sS'f_cpu'
p372
S'16000000L'
p373
sS'variant'
p374
S'mega'
p375
ssS'name'
p376
S'Arduino Mega (ATmega1280)'
p377
sg137
S'/usr/share/arduino/hardware/arduino'
p378
saa(lp379
S'leonardo'
p380
a(dp381
S'bootloader'
p382
(dp383
S'extended_fuses'
p384
S'0xcb'
p385
sS'high_fuses'
p386
S'0xd8'
p387
sS'low_fuses'
p388
S'0xff'
p389
sS'lock_bits'
p390
S'0x2F'
p391
sS'file'
p392
S'Caterina-Leonardo.hex'
p393
sS'path'
p394
S'caterina'
p395
sS'unlock_bits'
p396
S'0x3F'
p397
ssS'upload'
p398
(dp399
S'speed'
p400
S'57600'
p401
sS'maximum_size'
p402
S'28672'
p403
sS'protocol'
p404
S'avr109'
p405
sS'disable_flushing'
p406
S'true'
p407
ssS'build'
p408
(dp409
S'core'
p410
S'arduino'
p411
sS'f_cpu'
p412
S'16000000L'
p413
sS'vid'
p414
S'0x2341'
p415
sS'pid'
p416
S'0x8036'
p417
sS'variant'
p418
S'leonardo'
p419
sS'mcu'
p420
S'atmega32u4'
p421
ssS'name'
p422
S'Arduino Leonardo'
p423
sg137
S'/usr/share/arduino/hardware/arduino'
p424
saa(lp425
S'esplora'
p426
a(dp427
S'bootloader'
p428
(dp429
S'extended_fuses'
p430
S'0xcb'
p431
sS'high_fuses'
p432
S'0xd8'
p433
sS'low_fuses'
p434
S'0xff'
p435
sS'lock_bits'
p436
S'0x2F'
p437
sS'file'
p438
S'Caterina-Esplora.hex'
p439
sS'path'
p440
S'caterina'
p441
sS'unlock_bits'
p442
S'0x3F'
p443
ssS'upload'
p444
(dp445
S'speed'
p446
S'57600'
p447
sS'maximum_size'
p448
S'28672'
p449
sS'protocol'
p450
S'avr109'
p451
sS'disable_flushing'
p452
S'true'
p453
ssS'build'
p454
(dp455
S'core'
p456
S'arduino'
p457
sS'f_cpu'
p458
S'16000000L'
p459
sS'vid'
p460
S'0x2341'
p461
sS'pid'
p462
S'0x803C'
p463
sS'variant'
p464
S'leonardo'
p465
sS'mcu'
p466
S'atmega32u4'
p467
ssS'name'
p468
S'Arduino Esplora'
p469
sg137
S'/usr/share/arduino/hardware/arduino'
p470
saa(lp471
S'micro'
p472
a(dp473
S'bootloader'
p474
(dp475
S'extended_fuses'
p476
S'0xcb'
p477
sS'high_fuses'
p478
S'0xd8'
p479
sS'low_fuses'
p480
S'0xff'
p481
sS'lock_bits'
p482
S'0x2F'
p483
sS'file'
p484
S'Caterina-Micro.hex'
p485
sS'path'
p486
S'caterina'
p487
sS'unlock_bits'
p488
S'0x3F'
p489
ssS'upload'
p490
(dp491
S'speed'
p492
S'57600'
p493
sS'maximum_size'
p494
S'28672'
p495
sS'protocol'
p496
S'avr109'
p497
sS'disable_flushing'
p498
S'true'
p499
ssS'build'
p500
(dp501
S'core'
p502
S'arduino'
p503
sS'f_cpu'
p504
S'16000000L'
p505
sS'vid'
p506
S'0x2341'
p507
sS'pid'
p508
S'0x8037'
p509
sS'variant'
p510
S'micro'
p511
sS'mcu'
p512
S'atmega32u4'
p513
ssS'name'
p514
S'Arduino Micro'
p515
sg137
S'/usr/share/arduino/hardware/arduino'
p516
saa(lp517
S'mini328'
p518
a(dp519
S'bootloader'
p520
(dp521
S'extended_fuses'
p522
S'0x05'
p523
sS'high_fuses'
p524
S'0xd8'
p525
sS'low_fuses'
p526
S'0xff'
p527
sS'lock_bits'
p528
S'0x0F'
p529
sS'file'
p530
S'optiboot_atmega328-Mini.hex'
p531
sS'path'
p532
S'optiboot'
p533
sS'unlock_bits'
p534
S'0x3F'
p535
ssS'upload'
p536
(dp537
S'speed'
p538
S'115200'
p539
sS'maximum_size'
p540
S'28672'
p541
sS'protocol'
p542
S'arduino'
p543
ssS'build'
p544
(dp545
S'core'
p546
S'arduino'
p547
sS'mcu'
p548
S'atmega328p'
p549
sS'f_cpu'
p550
S'16000000L'
p551
sS'variant'
p552
S'eightanaloginputs'
p553
ssS'name'
p554
S'Arduino Mini w/ ATmega328'
p555
sg137
S'/usr/share/arduino/hardware/arduino'
p556
saa(lp557
S'mini'
p558
a(dp559
S'bootloader'
p560
(dp561
S'extended_fuses'
p562
S'0x00'
p563
sS'high_fuses'
p564
S'0xdd'
p565
sS'low_fuses'
p566
S'0xff'
p567
sS'lock_bits'
p568
S'0x0F'
p569
sS'file'
p570
S'ATmegaBOOT_168_ng.hex'
p571
sS'path'
p572
S'atmega'
p573
sS'unlock_bits'
p574
S'0x3F'
p575
ssS'upload'
p576
(dp577
S'speed'
p578
S'19200'
p579
sS'maximum_size'
p580
S'14336'
p581
sS'protocol'
p582
S'arduino'
p583
ssS'build'
p584
(dp585
S'core'
p586
S'arduino'
p587
sS'mcu'
p588
S'atmega168'
p589
sS'f_cpu'
p590
S'16000000L'
p591
sS'variant'
p592
S'eightanaloginputs'
p593
ssS'name'
p594
S'Arduino Mini w/ ATmega168'
p595
sg137
S'/usr/share/arduino/hardware/arduino'
p596
saa(lp597
S'ethernet'
p598
a(dp599
S'bootloader'
p600
(dp601
S'extended_fuses'
p602
S'0x05'
p603
sS'high_fuses'
p604
S'0xde'
p605
sS'low_fuses'
p606
S'0xff'
p607
sS'lock_bits'
p608
S'0x0F'
p609
sS'file'
p610
S'optiboot_atmega328.hex'
p611
sS'path'
p612
S'optiboot'
p613
sS'unlock_bits'
p614
S'0x3F'
p615
ssS'upload'
p616
(dp617
S'speed'
p618
S'115200'
p619
sS'maximum_size'
p620
S'32256'
p621
sS'protocol'
p622
S'arduino'
p623
ssS'build'
p624
(dp625
S'f_cpu'
p626
S'16000000L'
p627
sS'mcu'
p628
S'atmega328p'
p629
sS'variant'
p630
S'standard'
p631
sS'core'
p632
S'arduino'
p633
ssS'name'
p634
S'Arduino Ethernet'
p635
sg137
S'/usr/share/arduino/hardware/arduino'
p636
saa(lp637
S'fio'
p638
a(dp639
S'bootloader'
p640
(dp641
S'extended_fuses'
p642
S'0x05'
p643
sS'high_fuses'
p644
S'0xDA'
p645
sS'low_fuses'
p646
S'0xFF'
p647
sS'lock_bits'
p648
S'0x0F'
p649
sS'file'
p650
S'ATmegaBOOT_168_atmega328_pro_8MHz.hex'
p651
sS'path'
p652
S'arduino:atmega'
p653
sS'unlock_bits'
p654
S'0x3F'
p655
ssS'upload'
p656
(dp657
S'speed'
p658
S'57600'
p659
sS'maximum_size'
p660
S'30720'
p661
sS'protocol'
p662
S'arduino'
p663
ssS'build'
p664
(dp665
S'core'
p666
S'arduino'
p667
sS'mcu'
p668
S'atmega328p'
p669
sS'f_cpu'
p670
S'8000000L'
p671
sS'variant'
p672
S'eightanaloginputs'
p673
ssS'name'
p674
S'Arduino Fio'
p675
sg137
S'/usr/share/arduino/hardware/arduino'
p676
saa(lp677
S'bt328'
p678
a(dp679
S'bootloader'
p680
(dp681
S'extended_fuses'
p682
S'0x05'
p683
sS'high_fuses'
p684
S'0xd8'
p685
sS'low_fuses'
p686
S'0xff'
p687
sS'lock_bits'
p688
S'0x0F'
p689
sS'file'
p690
S'ATmegaBOOT_168_atmega328_bt.hex'
p691
sS'path'
p692
S'bt'
p693
sS'unlock_bits'
p694
S'0x3F'
p695
ssS'upload'
p696
(dp697
S'speed'
p698
S'19200'
p699
sS'maximum_size'
p700
S'28672'
p701
sS'protocol'
p702
S'arduino'
p703
sS'disable_flushing'
p704
S'true'
p705
ssS'build'
p706
(dp707
S'core'
p708
S'arduino'
p709
sS'mcu'
p710
S'atmega328p'
p711
sS'f_cpu'
p712
S'16000000L'
p713
sS'variant'
p714
S'eightanaloginputs'
p715
ssS'name'
p716
S'Arduino BT w/ ATmega328'
p717
sg137
S'/usr/share/arduino/hardware/arduino'
p718
saa(lp719
S'bt'
p720
a(dp721
S'bootloader'
p722
(dp723
S'extended_fuses'
p724
S'0x00'
p725
sS'high_fuses'
p726
S'0xdd'
p727
sS'low_fuses'
p728
S'0xff'
p729
sS'lock_bits'
p730
S'0x0F'
p731
sS'file'
p732
S'ATmegaBOOT_168.hex'
p733
sS'path'
p734
S'bt'
p735
sS'unlock_bits'
p736
S'0x3F'
p737
ssS'upload'
p738
(dp739
S'speed'
p740
S'19200'
p741
sS'maximum_size'
p742
S'14336'
p743
sS'protocol'
p744
S'arduino'
p745
sS'disable_flushing'
p746
S'true'
p747
ssS'build'
p748
(dp749
S'core'
p750
S'arduino'
p751
sS'mcu'
p752
S'atmega168'
p753
sS'f_cpu'
p754
S'16000000L'
p755
sS'variant'
p756
S'eightanaloginputs'
p757
ssS'name'
p758
S'Arduino BT w/ ATmega168'
p759
sg137
S'/usr/share/arduino/hardware/arduino'
p760
saa(lp761
S'LilyPadUSB'
p762
a(dp763
S'bootloader'
p764
(dp765
S'extended_fuses'
p766
S'0xce'
p767
sS'high_fuses'
p768
S'0xd8'
p769
sS'low_fuses'
p770
S'0xff'
p771
sS'lock_bits'
p772
S'0x2F'
p773
sS'file'
p774
S'Caterina-LilyPadUSB.hex'
p775
sS'path'
p776
S'caterina-LilyPadUSB'
p777
sS'unlock_bits'
p778
S'0x3F'
p779
ssS'upload'
p780
(dp781
S'speed'
p782
S'57600'
p783
sS'maximum_size'
p784
S'28672'
p785
sS'protocol'
p786
S'avr109'
p787
sS'disable_flushing'
p788
S'true'
p789
ssS'build'
p790
(dp791
S'core'
p792
S'arduino'
p793
sS'f_cpu'
p794
S'8000000L'
p795
sS'vid'
p796
S'0x1B4F'
p797
sS'pid'
p798
S'0x9208'
p799
sS'variant'
p800
S'leonardo'
p801
sS'mcu'
p802
S'atmega32u4'
p803
ssS'name'
p804
S'LilyPad Arduino USB'
p805
sg137
S'/usr/share/arduino/hardware/arduino'
p806
saa(lp807
S'lilypad328'
p808
a(dp809
S'bootloader'
p810
(dp811
S'extended_fuses'
p812
S'0x05'
p813
sS'high_fuses'
p814
S'0xDA'
p815
sS'low_fuses'
p816
S'0xFF'
p817
sS'lock_bits'
p818
S'0x0F'
p819
sS'file'
p820
S'ATmegaBOOT_168_atmega328_pro_8MHz.hex'
p821
sS'path'
p822
S'atmega'
p823
sS'unlock_bits'
p824
S'0x3F'
p825
ssS'upload'
p826
(dp827
S'speed'
p828
S'57600'
p829
sS'maximum_size'
p830
S'30720'
p831
sS'protocol'
p832
S'arduino'
p833
ssS'build'
p834
(dp835
S'core'
p836
S'arduino'
p837
sS'mcu'
p838
S'atmega328p'
p839
sS'f_cpu'
p840
S'8000000L'
p841
sS'variant'
p842
S'standard'
p843
ssS'name'
p844
S'LilyPad Arduino w/ ATmega328'
p845
sg137
S'/usr/share/arduino/hardware/arduino'
p846
saa(lp847
S'lilypad'
p848
a(dp849
S'bootloader'
p850
(dp851
S'extended_fuses'
p852
S'0x00'
p853
sS'high_fuses'
p854
S'0xdd'
p855
sS'low_fuses'
p856
S'0xe2'
p857
sS'lock_bits'
p858
S'0x0F'
p859
sS'file'
p860
S'LilyPadBOOT_168.hex'
p861
sS'path'
p862
S'lilypad'
p863
sS'unlock_bits'
p864
S'0x3F'
p865
ssS'upload'
p866
(dp867
S'speed'
p868
S'19200'
p869
sS'maximum_size'
p870
S'14336'
p871
sS'protocol'
p872
S'arduino'
p873
ssS'build'
p874
(dp875
S'core'
p876
S'arduino'
p877
sS'mcu'
p878
S'atmega168'
p879
sS'f_cpu'
p880
S'8000000L'
p881
sS'variant'
p882
S'standard'
p883
ssS'name'
p884
S'LilyPad Arduino w/ ATmega168'
p885
sg137
S'/usr/share/arduino/hardware/arduino'
p886
saa(lp887
S'pro5v328'
p888
a(dp889
S'bootloader'
p890
(dp891
S'extended_fuses'
p892
S'0x05'
p893
sS'high_fuses'
p894
S'0xDA'
p895
sS'low_fuses'
p896
S'0xFF'
p897
sS'lock_bits'
p898
S'0x0F'
p899
sS'file'
p900
S'ATmegaBOOT_168_atmega328.hex'
p901
sS'path'
p902
S'atmega'
p903
sS'unlock_bits'
p904
S'0x3F'
p905
ssS'upload'
p906
(dp907
S'speed'
p908
S'57600'
p909
sS'maximum_size'
p910
S'30720'
p911
sS'protocol'
p912
S'arduino'
p913
ssS'build'
p914
(dp915
S'core'
p916
S'arduino'
p917
sS'mcu'
p918
S'atmega328p'
p919
sS'f_cpu'
p920
S'16000000L'
p921
sS'variant'
p922
S'standard'
p923
ssS'name'
p924
S'Arduino Pro or Pro Mini (5V, 16 MHz) w/ ATmega328'
p925
sg137
S'/usr/share/arduino/hardware/arduino'
p926
saa(lp927
S'pro5v'
p928
a(dp929
S'bootloader'
p930
(dp931
S'extended_fuses'
p932
S'0x00'
p933
sS'high_fuses'
p934
S'0xdd'
p935
sS'low_fuses'
p936
S'0xff'
p937
sS'lock_bits'
p938
S'0x0F'
p939
sS'file'
p940
S'ATmegaBOOT_168_diecimila.hex'
p941
sS'path'
p942
S'atmega'
p943
sS'unlock_bits'
p944
S'0x3F'
p945
ssS'upload'
p946
(dp947
S'speed'
p948
S'19200'
p949
sS'maximum_size'
p950
S'14336'
p951
sS'protocol'
p952
S'arduino'
p953
ssS'build'
p954
(dp955
S'core'
p956
S'arduino'
p957
sS'mcu'
p958
S'atmega168'
p959
sS'f_cpu'
p960
S'16000000L'
p961
sS'variant'
p962
S'standard'
p963
ssS'name'
p964
S'Arduino Pro or Pro Mini (5V, 16 MHz) w/ ATmega168'
p965
sg137
S'/usr/share/arduino/hardware/arduino'
p966
saa(lp967
S'pro328'
p968
a(dp969
S'bootloader'
p970
(dp971
S'extended_fuses'
p972
S'0x05'
p973
sS'high_fuses'
p974
S'0xDA'
p975
sS'low_fuses'
p976
S'0xFF'
p977
sS'lock_bits'
p978
S'0x0F'
p979
sS'file'
p980
S'ATmegaBOOT_168_atmega328_pro_8MHz.hex'
p981
sS'path'
p982
S'atmega'
p983
sS'unlock_bits'
p984
S'0x3F'
p985
ssS'upload'
p986
(dp987
S'speed'
p988
S'57600'
p989
sS'maximum_size'
p990
S'30720'
p991
sS'protocol'
p992
S'arduino'
p993
ssS'build'
p994
(dp995
S'core'
p996
S'arduino'
p997
sS'mcu'
p998
S'atmega328p'
p999
sS'f_cpu'
p1000
S'8000000L'
p1001
sS'variant'
p1002
S'standard'
p1003
ssS'name'
p1004
S'Arduino Pro or Pro Mini (3.3V, 8 MHz) w/ ATmega328'
p1005
sg137
S'/usr/share/arduino/hardware/arduino'
p1006
saa(lp1007
S'pro'
p1008
a(dp1009
S'bootloader'
p1010
(dp1011
S'extended_fuses'
p1012
S'0x00'
p1013
sS'high_fuses'
p1014
S'0xdd'
p1015
sS'low_fuses'
p1016
S'0xc6'
p1017
sS'lock_bits'
p1018
S'0x0F'
p1019
sS'file'
p1020
S'ATmegaBOOT_168_pro_8MHz.hex'
p1021
sS'path'
p1022
S'atmega'
p1023
sS'unlock_bits'
p1024
S'0x3F'
p1025
ssS'upload'
p1026
(dp1027
S'speed'
p1028
S'19200'
p1029
sS'maximum_size'
p1030
S'14336'
p1031
sS'protocol'
p1032
S'arduino'
p1033
ssS'build'
p1034
(dp1035
S'core'
p1036
S'arduino'
p1037
sS'mcu'
p1038
S'atmega168'
p1039
sS'f_cpu'
p1040
S'8000000L'
p1041
sS'variant'
p1042
S'standard'
p1043
ssS'name'
p1044
S'Arduino Pro or Pro Mini (3.3V, 8 MHz) w/ ATmega168'
p1045
sg137
S'/usr/share/arduino/hardware/arduino'
p1046
saa(lp1047
S'atmega168'
p1048
a(dp1049
S'bootloader'
p1050
(dp1051
S'extended_fuses'
p1052
S'0x00'
p1053
sS'high_fuses'
p1054
S'0xdd'
p1055
sS'low_fuses'
p1056
S'0xff'
p1057
sS'lock_bits'
p1058
S'0x0F'
p1059
sS'file'
p1060
S'ATmegaBOOT_168_ng.hex'
p1061
sS'path'
p1062
S'atmega'
p1063
sS'unlock_bits'
p1064
S'0x3F'
p1065
ssS'upload'
p1066
(dp1067
S'speed'
p1068
S'19200'
p1069
sS'maximum_size'
p1070
S'14336'
p1071
sS'protocol'
p1072
S'arduino'
p1073
ssS'build'
p1074
(dp1075
S'core'
p1076
S'arduino'
p1077
sS'mcu'
p1078
S'atmega168'
p1079
sS'f_cpu'
p1080
S'16000000L'
p1081
sS'variant'
p1082
S'standard'
p1083
ssS'name'
p1084
S'Arduino NG or older w/ ATmega168'
p1085
sg137
S'/usr/share/arduino/hardware/arduino'
p1086
saa(lp1087
S'atmega8'
p1088
a(dp1089
S'bootloader'
p1090
(dp1091
S'high_fuses'
p1092
S'0xca'
p1093
sS'low_fuses'
p1094
S'0xdf'
p1095
sS'lock_bits'
p1096
S'0x0F'
p1097
sS'file'
p1098
S'ATmegaBOOT-prod-firmware-2009-11-07.hex'
p1099
sS'path'
p1100
S'atmega8'
p1101
sS'unlock_bits'
p1102
S'0x3F'
p1103
ssS'upload'
p1104
(dp1105
S'speed'
p1106
S'19200'
p1107
sS'maximum_size'
p1108
S'7168'
p1109
sS'protocol'
p1110
S'arduino'
p1111
ssS'build'
p1112
(dp1113
S'core'
p1114
S'arduino'
p1115
sS'mcu'
p1116
S'atmega8'
p1117
sS'f_cpu'
p1118
S'16000000L'
p1119
sS'variant'
p1120
S'standard'
p1121
ssS'name'
p1122
S'Arduino NG or older w/ ATmega8'
p1123
sg137
S'/usr/share/arduino/hardware/arduino'
p1124
saa(lp1125
S'robotControl'
p1126
a(dp1127
S'bootloader'
p1128
(dp1129
S'extended_fuses'
p1130
S'0xcb'
p1131
sS'high_fuses'
p1132
S'0xd8'
p1133
sS'low_fuses'
p1134
S'0xff'
p1135
sS'lock_bits'
p1136
S'0x2F'
p1137
sS'file'
p1138
S'Caterina-Robot-Control.hex'
p1139
sS'path'
p1140
S'caterina-Arduino_Robot'
p1141
sS'unlock_bits'
p1142
S'0x3F'
p1143
ssS'upload'
p1144
(dp1145
S'speed'
p1146
S'57600'
p1147
sS'maximum_size'
p1148
S'28672'
p1149
sS'protocol'
p1150
S'avr109'
p1151
sS'disable_flushing'
p1152
S'true'
p1153
ssS'build'
p1154
(dp1155
S'core'
p1156
S'robot'
p1157
sS'f_cpu'
p1158
S'16000000L'
p1159
sS'vid'
p1160
S'0x2341'
p1161
sS'pid'
p1162
S'0x8038'
p1163
sS'variant'
p1164
S'robot_control'
p1165
sS'mcu'
p1166
S'atmega32u4'
p1167
ssS'name'
p1168
S'Arduino Robot Control'
p1169
sg137
S'/usr/share/arduino/hardware/arduino'
p1170
saa(lp1171
S'robotMotor'
p1172
a(dp1173
S'bootloader'
p1174
(dp1175
S'extended_fuses'
p1176
S'0xcb'
p1177
sS'high_fuses'
p1178
S'0xd8'
p1179
sS'low_fuses'
p1180
S'0xff'
p1181
sS'lock_bits'
p1182
S'0x2F'
p1183
sS'file'
p1184
S'Caterina-Robot-Motor.hex'
p1185
sS'path'
p1186
S'caterina-Arduino_Robot'
p1187
sS'unlock_bits'
p1188
S'0x3F'
p1189
ssS'upload'
p1190
(dp1191
S'speed'
p1192
S'57600'
p1193
sS'maximum_size'
p1194
S'28672'
p1195
sS'protocol'
p1196
S'avr109'
p1197
sS'disable_flushing'
p1198
S'true'
p1199
ssS'build'
p1200
(dp1201
S'core'
p1202
S'robot'
p1203
sS'f_cpu'
p1204
S'16000000L'
p1205
sS'vid'
p1206
S'0x2341'
p1207
sS'pid'
p1208
S'0x8039'
p1209
sS'variant'
p1210
S'robot_motor'
p1211
sS'mcu'
p1212
S'atmega32u4'
p1213
ssS'name'
p1214
S'Arduino Robot Motor'
p1215
sg137
S'/usr/share/arduino/hardware/arduino'
p1216
saa(lp1217
S'attiny45'
p1218
a(dp1219
S'bootloader'
p1220
(dp1221
S'low_fuses'
p1222
S'0x62'
p1223
sS'extended_fuses'
p1224
S'0xff'
p1225
sS'high_fuses'
p1226
S'0xdf'
p1227
ssS'upload'
p1228
(dp1229
S'maximum_size'
p1230
S'4096'
p1231
ssS'build'
p1232
(dp1233
S'core'
p1234
S'arduino:arduino'
p1235
sS'mcu'
p1236
S'attiny45'
p1237
sS'f_cpu'
p1238
S'1000000L'
p1239
sS'variant'
p1240
S'tiny8'
p1241
ssS'name'
p1242
S'ATtiny45 (internal 1 MHz clock)'
p1243
sg137
S'/usr/share/arduino/hardware/attiny'
p1244
saa(lp1245
S'attiny45-8'
p1246
a(dp1247
S'bootloader'
p1248
(dp1249
S'low_fuses'
p1250
S'0xe2'
p1251
sS'extended_fuses'
p1252
S'0xff'
p1253
sS'high_fuses'
p1254
S'0xdf'
p1255
ssS'upload'
p1256
(dp1257
S'maximum_size'
p1258
S'4096'
p1259
ssS'build'
p1260
(dp1261
S'core'
p1262
S'arduino:arduino'
p1263
sS'mcu'
p1264
S'attiny45'
p1265
sS'f_cpu'
p1266
S'8000000L'
p1267
sS'variant'
p1268
S'tiny8'
p1269
ssS'name'
p1270
S'ATtiny45 (internal 8 MHz clock)'
p1271
sg137
S'/usr/share/arduino/hardware/attiny'
p1272
saa(lp1273
S'attiny45-20'
p1274
a(dp1275
S'bootloader'
p1276
(dp1277
S'low_fuses'
p1278
S'0xfe'
p1279
sS'extended_fuses'
p1280
S'0xff'
p1281
sS'high_fuses'
p1282
S'0xdf'
p1283
ssS'upload'
p1284
(dp1285
S'maximum_size'
p1286
S'4096'
p1287
ssS'build'
p1288
(dp1289
S'core'
p1290
S'arduino:arduino'
p1291
sS'mcu'
p1292
S'attiny45'
p1293
sS'f_cpu'
p1294
S'20000000L'
p1295
sS'variant'
p1296
S'tiny8'
p1297
ssS'name'
p1298
S'ATtiny45 (external 20 MHz clock)'
p1299
sg137
S'/usr/share/arduino/hardware/attiny'
p1300
saa(lp1301
S'attiny85'
p1302
a(dp1303
S'bootloader'
p1304
(dp1305
S'low_fuses'
p1306
S'0x62'
p1307
sS'extended_fuses'
p1308
S'0xff'
p1309
sS'high_fuses'
p1310
S'0xdf'
p1311
ssS'upload'
p1312
(dp1313
S'maximum_size'
p1314
S'8192'
p1315
ssS'build'
p1316
(dp1317
S'core'
p1318
S'arduino:arduino'
p1319
sS'mcu'
p1320
S'attiny85'
p1321
sS'f_cpu'
p1322
S'1000000L'
p1323
sS'variant'
p1324
S'tiny8'
p1325
ssS'name'
p1326
S'ATtiny85 (internal 1 MHz clock)'
p1327
sg137
S'/usr/share/arduino/hardware/attiny'
p1328
saa(lp1329
S'attiny85-8'
p1330
a(dp1331
S'bootloader'
p1332
(dp1333
S'low_fuses'
p1334
S'0xe2'
p1335
sS'extended_fuses'
p1336
S'0xff'
p1337
sS'high_fuses'
p1338
S'0xdf'
p1339
ssS'upload'
p1340
(dp1341
S'maximum_size'
p1342
S'8192'
p1343
ssS'build'
p1344
(dp1345
S'core'
p1346
S'arduino:arduino'
p1347
sS'mcu'
p1348
S'attiny85'
p1349
sS'f_cpu'
p1350
S'8000000L'
p1351
sS'variant'
p1352
S'tiny8'
p1353
ssS'name'
p1354
S'ATtiny85 (internal 8 MHz clock)'
p1355
sg137
S'/usr/share/arduino/hardware/attiny'
p1356
saa(lp1357
S'attiny85-20'
p1358
a(dp1359
S'bootloader'
p1360
(dp1361
S'low_fuses'
p1362
S'0xfe'
p1363
sS'extended_fuses'
p1364
S'0xff'
p1365
sS'high_fuses'
p1366
S'0xdf'
p1367
ssS'upload'
p1368
(dp1369
S'maximum_size'
p1370
S'8192'
p1371
ssS'build'
p1372
(dp1373
S'core'
p1374
S'arduino:arduino'
p1375
sS'mcu'
p1376
S'attiny85'
p1377
sS'f_cpu'
p1378
S'20000000L'
p1379
sS'variant'
p1380
S'tiny8'
p1381
ssS'name'
p1382
S'ATtiny85 (external 20 MHz clock)'
p1383
sg137
S'/usr/share/arduino/hardware/attiny'
p1384
saa(lp1385
S'attiny44'
p1386
a(dp1387
S'bootloader'
p1388
(dp1389
S'low_fuses'
p1390
S'0x62'
p1391
sS'extended_fuses'
p1392
S'0xff'
p1393
sS'high_fuses'
p1394
S'0xdf'
p1395
ssS'upload'
p1396
(dp1397
S'maximum_size'
p1398
S'4096'
p1399
ssS'build'
p1400
(dp1401
S'core'
p1402
S'arduino:arduino'
p1403
sS'mcu'
p1404
S'attiny44'
p1405
sS'f_cpu'
p1406
S'1000000L'
p1407
sS'variant'
p1408
S'tiny14'
p1409
ssS'name'
p1410
S'ATtiny44 (internal 1 MHz clock)'
p1411
sg137
S'/usr/share/arduino/hardware/attiny'
p1412
saa(lp1413
S'attiny44-8'
p1414
a(dp1415
S'bootloader'
p1416
(dp1417
S'low_fuses'
p1418
S'0xe2'
p1419
sS'extended_fuses'
p1420
S'0xff'
p1421
sS'high_fuses'
p1422
S'0xdf'
p1423
ssS'upload'
p1424
(dp1425
S'maximum_size'
p1426
S'4096'
p1427
ssS'build'
p1428
(dp1429
S'core'
p1430
S'arduino:arduino'
p1431
sS'mcu'
p1432
S'attiny44'
p1433
sS'f_cpu'
p1434
S'8000000L'
p1435
sS'variant'
p1436
S'tiny14'
p1437
ssS'name'
p1438
S'ATtiny44 (internal 8 MHz clock)'
p1439
sg137
S'/usr/share/arduino/hardware/attiny'
p1440
saa(lp1441
S'attiny44-20'
p1442
a(dp1443
S'bootloader'
p1444
(dp1445
S'low_fuses'
p1446
S'0xfe'
p1447
sS'extended_fuses'
p1448
S'0xff'
p1449
sS'high_fuses'
p1450
S'0xdf'
p1451
ssS'upload'
p1452
(dp1453
S'maximum_size'
p1454
S'4096'
p1455
ssS'build'
p1456
(dp1457
S'core'
p1458
S'arduino:arduino'
p1459
sS'mcu'
p1460
S'attiny44'
p1461
sS'f_cpu'
p1462
S'20000000L'
p1463
sS'variant'
p1464
S'tiny14'
p1465
ssS'name'
p1466
S'ATtiny44 (external 20 MHz clock)'
p1467
sg137
S'/usr/share/arduino/hardware/attiny'
p1468
saa(lp1469
S'attiny84'
p1470
a(dp1471
S'bootloader'
p1472
(dp1473
S'low_fuses'
p1474
S'0x62'
p1475
sS'extended_fuses'
p1476
S'0xff'
p1477
sS'high_fuses'
p1478
S'0xdf'
p1479
ssS'upload'
p1480
(dp1481
S'maximum_size'
p1482
S'8192'
p1483
ssS'build'
p1484
(dp1485
S'core'
p1486
S'arduino:arduino'
p1487
sS'mcu'
p1488
S'attiny84'
p1489
sS'f_cpu'
p1490
S'1000000L'
p1491
sS'variant'
p1492
S'tiny14'
p1493
ssS'name'
p1494
S'ATtiny84 (internal 1 MHz clock)'
p1495
sg137
S'/usr/share/arduino/hardware/attiny'
p1496
saa(lp1497
S'attiny84-8'
p1498
a(dp1499
S'bootloader'
p1500
(dp1501
S'low_fuses'
p1502
S'0xe2'
p1503
sS'extended_fuses'
p1504
S'0xff'
p1505
sS'high_fuses'
p1506
S'0xdf'
p1507
ssS'upload'
p1508
(dp1509
S'maximum_size'
p1510
S'8192'
p1511
ssS'build'
p1512
(dp1513
S'core'
p1514
S'arduino:arduino'
p1515
sS'mcu'
p1516
S'attiny84'
p1517
sS'f_cpu'
p1518
S'8000000L'
p1519
sS'variant'
p1520
S'tiny14'
p1521
ssS'name'
p1522
S'ATtiny84 (internal 8 MHz clock)'
p1523
sg137
S'/usr/share/arduino/hardware/attiny'
p1524
saa(lp1525
S'attiny84-20'
p1526
a(dp1527
S'bootloader'
p1528
(dp1529
S'low_fuses'
p1530
S'0xfe'
p1531
sS'extended_fuses'
p1532
S'0xff'
p1533
sS'high_fuses'
p1534
S'0xdf'
p1535
ssS'upload'
p1536
(dp1537
S'maximum_size'
p1538
S'8192'
p1539
ssS'build'
p1540
(dp1541
S'core'
p1542
S'arduino:arduino'
p1543
sS'mcu'
p1544
S'attiny84'
p1545
sS'f_cpu'
p1546
S'20000000L'
p1547
sS'variant'
p1548
S'tiny14'
p1549
ssS'name'
p1550
S'ATtiny84 (external 20 MHz clock)'
p1551
sg137
S'/usr/share/arduino/hardware/attiny'
p1552
saatp1553
Rp1554
(dp1555
S'default'
p1556
S'uno'
p1557
sbtp1558
a(S'ldflags'
p1559
g2
(g3
g4
(lp1560
g6
aS'-Wl,-Os'
p1561
aS'-Wl,--gc-sections'
p1562
atp1563
Rp1564
tp1565
a.