(lp0
(S'cppflags'
p1
ccopy_reg
_reconstructor
p2
(cino.utils
SpaceList
p3
c__builtin__
list
p4
(lp5
S'-mmcu=atmega328p'
p6
aS'-DF_CPU=16000000L'
p7
aS'-DARDUINO=105'
p8
aS'-I/usr/share/arduino/hardware/arduino/cores/arduino'
p9
aS'-ffunction-sections'
p10
aS'-fdata-sections'
p11
aS'-g'
p12
aS'-Os'
p13
aS'-w'
p14
aS'-I/usr/share/arduino/hardware/arduino/variants/standard'
p15
aS'-I/usr/share/arduino/hardware/arduino/cores/arduino'
p16
aS'-I/usr/share/arduino/hardware/arduino/cores/arduino/avr-libc'
p17
atp18
Rp19
tp20
a(S'cxx'
p21
S'/usr/share/arduino/hardware/tools/avr/bin/avr-g++'
p22
tp23
a(S'arduino_libraries_dir'
p24
S'/usr/share/arduino/libraries'
p25
tp26
a(S'avrdude'
p27
S'/usr/share/arduino/hardware/tools/avrdude'
p28
tp29
a(S'ar'
p30
S'/usr/share/arduino/hardware/tools/avr/bin/avr-ar'
p31
tp32
a(S'names'
p33
(dp34
S'cpp'
p35
S'%s.cpp'
p36
sS'obj'
p37
S'%s.o'
p38
sS'lib'
p39
S'lib%s.a'
p40
sS'deps'
p41
S'%s.d'
p42
stp43
a(S'ldflags'
p44
g2
(g3
g4
(lp45
g6
aS'-Wl,-Os'
p46
aS'-Wl,--gc-sections'
p47
atp48
Rp49
tp50
a(S'arduino_lib_version'
p51
g2
(cino.environment
Version
p52
c__builtin__
tuple
p53
(I1
I0
I5
tp54
tp55
Rp56
tp57
a(S'objcopy'
p58
S'/usr/share/arduino/hardware/tools/avr/bin/avr-objcopy'
p59
tp60
a(S'board_models'
p61
cino.environment
BoardModels
p62
((lp63
(lp64
S'uno'
p65
a(dp66
S'bootloader'
p67
(dp68
S'extended_fuses'
p69
S'0x05'
p70
sS'high_fuses'
p71
S'0xde'
p72
sS'low_fuses'
p73
S'0xff'
p74
sS'lock_bits'
p75
S'0x0F'
p76
sS'file'
p77
S'optiboot_atmega328.hex'
p78
sS'path'
p79
S'optiboot'
p80
sS'unlock_bits'
p81
S'0x3F'
p82
ssS'upload'
p83
(dp84
S'speed'
p85
S'115200'
p86
sS'maximum_size'
p87
S'32256'
p88
sS'protocol'
p89
S'arduino'
p90
ssS'build'
p91
(dp92
S'core'
p93
S'arduino'
p94
sS'mcu'
p95
S'atmega328p'
p96
sS'f_cpu'
p97
S'16000000L'
p98
sS'variant'
p99
S'standard'
p100
ssS'name'
p101
S'Arduino Uno'
p102
sS'_coredir'
p103
S'/usr/share/arduino/hardware/arduino'
p104
saa(lp105
S'atmega328'
p106
a(dp107
S'bootloader'
p108
(dp109
S'extended_fuses'
p110
S'0x05'
p111
sS'high_fuses'
p112
S'0xDA'
p113
sS'low_fuses'
p114
S'0xFF'
p115
sS'lock_bits'
p116
S'0x0F'
p117
sS'file'
p118
S'ATmegaBOOT_168_atmega328.hex'
p119
sS'path'
p120
S'atmega'
p121
sS'unlock_bits'
p122
S'0x3F'
p123
ssS'upload'
p124
(dp125
S'speed'
p126
S'57600'
p127
sS'maximum_size'
p128
S'30720'
p129
sS'protocol'
p130
S'arduino'
p131
ssS'build'
p132
(dp133
S'core'
p134
S'arduino'
p135
sS'mcu'
p136
S'atmega328p'
p137
sS'f_cpu'
p138
S'16000000L'
p139
sS'variant'
p140
S'standard'
p141
ssS'name'
p142
S'Arduino Duemilanove w/ ATmega328'
p143
sg103
S'/usr/share/arduino/hardware/arduino'
p144
saa(lp145
S'diecimila'
p146
a(dp147
S'bootloader'
p148
(dp149
S'extended_fuses'
p150
S'0x00'
p151
sS'high_fuses'
p152
S'0xdd'
p153
sS'low_fuses'
p154
S'0xff'
p155
sS'lock_bits'
p156
S'0x0F'
p157
sS'file'
p158
S'ATmegaBOOT_168_diecimila.hex'
p159
sS'path'
p160
S'atmega'
p161
sS'unlock_bits'
p162
S'0x3F'
p163
ssS'upload'
p164
(dp165
S'speed'
p166
S'19200'
p167
sS'maximum_size'
p168
S'14336'
p169
sS'protocol'
p170
S'arduino'
p171
ssS'build'
p172
(dp173
S'core'
p174
S'arduino'
p175
sS'mcu'
p176
S'atmega168'
p177
sS'f_cpu'
p178
S'16000000L'
p179
sS'variant'
p180
S'standard'
p181
ssS'name'
p182
S'Arduino Diecimila or Duemilanove w/ ATmega168'
p183
sg103
S'/usr/share/arduino/hardware/arduino'
p184
saa(lp185
S'nano328'
p186
a(dp187
S'bootloader'
p188
(dp189
S'extended_fuses'
p190
S'0x05'
p191
sS'high_fuses'
p192
S'0xDA'
p193
sS'low_fuses'
p194
S'0xFF'
p195
sS'lock_bits'
p196
S'0x0F'
p197
sS'file'
p198
S'ATmegaBOOT_168_atmega328.hex'
p199
sS'path'
p200
S'atmega'
p201
sS'unlock_bits'
p202
S'0x3F'
p203
ssS'upload'
p204
(dp205
S'speed'
p206
S'57600'
p207
sS'maximum_size'
p208
S'30720'
p209
sS'protocol'
p210
S'arduino'
p211
ssS'build'
p212
(dp213
S'core'
p214
S'arduino'
p215
sS'mcu'
p216
S'atmega328p'
p217
sS'f_cpu'
p218
S'16000000L'
p219
sS'variant'
p220
S'eightanaloginputs'
p221
ssS'name'
p222
S'Arduino Nano w/ ATmega328'
p223
sg103
S'/usr/share/arduino/hardware/arduino'
p224
saa(lp225
S'nano'
p226
a(dp227
S'bootloader'
p228
(dp229
S'extended_fuses'
p230
S'0x00'
p231
sS'high_fuses'
p232
S'0xdd'
p233
sS'low_fuses'
p234
S'0xff'
p235
sS'lock_bits'
p236
S'0x0F'
p237
sS'file'
p238
S'ATmegaBOOT_168_diecimila.hex'
p239
sS'path'
p240
S'atmega'
p241
sS'unlock_bits'
p242
S'0x3F'
p243
ssS'upload'
p244
(dp245
S'speed'
p246
S'19200'
p247
sS'maximum_size'
p248
S'14336'
p249
sS'protocol'
p250
S'arduino'
p251
ssS'build'
p252
(dp253
S'core'
p254
S'arduino'
p255
sS'mcu'
p256
S'atmega168'
p257
sS'f_cpu'
p258
S'16000000L'
p259
sS'variant'
p260
S'eightanaloginputs'
p261
ssS'name'
p262
S'Arduino Nano w/ ATmega168'
p263
sg103
S'/usr/share/arduino/hardware/arduino'
p264
saa(lp265
S'mega2560'
p266
a(dp267
S'bootloader'
p268
(dp269
S'extended_fuses'
p270
S'0xFD'
p271
sS'high_fuses'
p272
S'0xD8'
p273
sS'low_fuses'
p274
S'0xFF'
p275
sS'lock_bits'
p276
S'0x0F'
p277
sS'file'
p278
S'stk500boot_v2_mega2560.hex'
p279
sS'path'
p280
S'stk500v2'
p281
sS'unlock_bits'
p282
S'0x3F'
p283
ssS'upload'
p284
(dp285
S'speed'
p286
S'115200'
p287
sS'maximum_size'
p288
S'258048'
p289
sS'protocol'
p290
S'wiring'
p291
ssS'build'
p292
(dp293
S'core'
p294
S'arduino'
p295
sS'mcu'
p296
S'atmega2560'
p297
sS'f_cpu'
p298
S'16000000L'
p299
sS'variant'
p300
S'mega'
p301
ssS'name'
p302
S'Arduino Mega 2560 or Mega ADK'
p303
sg103
S'/usr/share/arduino/hardware/arduino'
p304
saa(lp305
S'mega'
p306
a(dp307
S'bootloader'
p308
(dp309
S'extended_fuses'
p310
S'0xF5'
p311
sS'high_fuses'
p312
S'0xDA'
p313
sS'low_fuses'
p314
S'0xFF'
p315
sS'lock_bits'
p316
S'0x0F'
p317
sS'file'
p318
S'ATmegaBOOT_168_atmega1280.hex'
p319
sS'path'
p320
S'atmega'
p321
sS'unlock_bits'
p322
S'0x3F'
p323
ssS'upload'
p324
(dp325
S'speed'
p326
S'57600'
p327
sS'maximum_size'
p328
S'126976'
p329
sS'protocol'
p330
S'arduino'
p331
ssS'build'
p332
(dp333
S'core'
p334
S'arduino'
p335
sS'mcu'
p336
S'atmega1280'
p337
sS'f_cpu'
p338
S'16000000L'
p339
sS'variant'
p340
S'mega'
p341
ssS'name'
p342
S'Arduino Mega (ATmega1280)'
p343
sg103
S'/usr/share/arduino/hardware/arduino'
p344
saa(lp345
S'leonardo'
p346
a(dp347
S'bootloader'
p348
(dp349
S'extended_fuses'
p350
S'0xcb'
p351
sS'high_fuses'
p352
S'0xd8'
p353
sS'low_fuses'
p354
S'0xff'
p355
sS'lock_bits'
p356
S'0x2F'
p357
sS'file'
p358
S'Caterina-Leonardo.hex'
p359
sS'path'
p360
S'caterina'
p361
sS'unlock_bits'
p362
S'0x3F'
p363
ssS'upload'
p364
(dp365
S'speed'
p366
S'57600'
p367
sS'maximum_size'
p368
S'28672'
p369
sS'protocol'
p370
S'avr109'
p371
sS'disable_flushing'
p372
S'true'
p373
ssS'build'
p374
(dp375
S'core'
p376
S'arduino'
p377
sS'f_cpu'
p378
S'16000000L'
p379
sS'vid'
p380
S'0x2341'
p381
sS'pid'
p382
S'0x8036'
p383
sS'variant'
p384
S'leonardo'
p385
sS'mcu'
p386
S'atmega32u4'
p387
ssS'name'
p388
S'Arduino Leonardo'
p389
sg103
S'/usr/share/arduino/hardware/arduino'
p390
saa(lp391
S'esplora'
p392
a(dp393
S'bootloader'
p394
(dp395
S'extended_fuses'
p396
S'0xcb'
p397
sS'high_fuses'
p398
S'0xd8'
p399
sS'low_fuses'
p400
S'0xff'
p401
sS'lock_bits'
p402
S'0x2F'
p403
sS'file'
p404
S'Caterina-Esplora.hex'
p405
sS'path'
p406
S'caterina'
p407
sS'unlock_bits'
p408
S'0x3F'
p409
ssS'upload'
p410
(dp411
S'speed'
p412
S'57600'
p413
sS'maximum_size'
p414
S'28672'
p415
sS'protocol'
p416
S'avr109'
p417
sS'disable_flushing'
p418
S'true'
p419
ssS'build'
p420
(dp421
S'core'
p422
S'arduino'
p423
sS'f_cpu'
p424
S'16000000L'
p425
sS'vid'
p426
S'0x2341'
p427
sS'pid'
p428
S'0x803C'
p429
sS'variant'
p430
S'leonardo'
p431
sS'mcu'
p432
S'atmega32u4'
p433
ssS'name'
p434
S'Arduino Esplora'
p435
sg103
S'/usr/share/arduino/hardware/arduino'
p436
saa(lp437
S'micro'
p438
a(dp439
S'bootloader'
p440
(dp441
S'extended_fuses'
p442
S'0xcb'
p443
sS'high_fuses'
p444
S'0xd8'
p445
sS'low_fuses'
p446
S'0xff'
p447
sS'lock_bits'
p448
S'0x2F'
p449
sS'file'
p450
S'Caterina-Micro.hex'
p451
sS'path'
p452
S'caterina'
p453
sS'unlock_bits'
p454
S'0x3F'
p455
ssS'upload'
p456
(dp457
S'speed'
p458
S'57600'
p459
sS'maximum_size'
p460
S'28672'
p461
sS'protocol'
p462
S'avr109'
p463
sS'disable_flushing'
p464
S'true'
p465
ssS'build'
p466
(dp467
S'core'
p468
S'arduino'
p469
sS'f_cpu'
p470
S'16000000L'
p471
sS'vid'
p472
S'0x2341'
p473
sS'pid'
p474
S'0x8037'
p475
sS'variant'
p476
S'micro'
p477
sS'mcu'
p478
S'atmega32u4'
p479
ssS'name'
p480
S'Arduino Micro'
p481
sg103
S'/usr/share/arduino/hardware/arduino'
p482
saa(lp483
S'mini328'
p484
a(dp485
S'bootloader'
p486
(dp487
S'extended_fuses'
p488
S'0x05'
p489
sS'high_fuses'
p490
S'0xd8'
p491
sS'low_fuses'
p492
S'0xff'
p493
sS'lock_bits'
p494
S'0x0F'
p495
sS'file'
p496
S'optiboot_atmega328-Mini.hex'
p497
sS'path'
p498
S'optiboot'
p499
sS'unlock_bits'
p500
S'0x3F'
p501
ssS'upload'
p502
(dp503
S'speed'
p504
S'115200'
p505
sS'maximum_size'
p506
S'28672'
p507
sS'protocol'
p508
S'arduino'
p509
ssS'build'
p510
(dp511
S'core'
p512
S'arduino'
p513
sS'mcu'
p514
S'atmega328p'
p515
sS'f_cpu'
p516
S'16000000L'
p517
sS'variant'
p518
S'eightanaloginputs'
p519
ssS'name'
p520
S'Arduino Mini w/ ATmega328'
p521
sg103
S'/usr/share/arduino/hardware/arduino'
p522
saa(lp523
S'mini'
p524
a(dp525
S'bootloader'
p526
(dp527
S'extended_fuses'
p528
S'0x00'
p529
sS'high_fuses'
p530
S'0xdd'
p531
sS'low_fuses'
p532
S'0xff'
p533
sS'lock_bits'
p534
S'0x0F'
p535
sS'file'
p536
S'ATmegaBOOT_168_ng.hex'
p537
sS'path'
p538
S'atmega'
p539
sS'unlock_bits'
p540
S'0x3F'
p541
ssS'upload'
p542
(dp543
S'speed'
p544
S'19200'
p545
sS'maximum_size'
p546
S'14336'
p547
sS'protocol'
p548
S'arduino'
p549
ssS'build'
p550
(dp551
S'core'
p552
S'arduino'
p553
sS'mcu'
p554
S'atmega168'
p555
sS'f_cpu'
p556
S'16000000L'
p557
sS'variant'
p558
S'eightanaloginputs'
p559
ssS'name'
p560
S'Arduino Mini w/ ATmega168'
p561
sg103
S'/usr/share/arduino/hardware/arduino'
p562
saa(lp563
S'ethernet'
p564
a(dp565
S'bootloader'
p566
(dp567
S'extended_fuses'
p568
S'0x05'
p569
sS'high_fuses'
p570
S'0xde'
p571
sS'low_fuses'
p572
S'0xff'
p573
sS'lock_bits'
p574
S'0x0F'
p575
sS'file'
p576
S'optiboot_atmega328.hex'
p577
sS'path'
p578
S'optiboot'
p579
sS'unlock_bits'
p580
S'0x3F'
p581
ssS'upload'
p582
(dp583
S'speed'
p584
S'115200'
p585
sS'maximum_size'
p586
S'32256'
p587
sS'protocol'
p588
S'arduino'
p589
ssS'build'
p590
(dp591
S'f_cpu'
p592
S'16000000L'
p593
sS'mcu'
p594
S'atmega328p'
p595
sS'variant'
p596
S'standard'
p597
sS'core'
p598
S'arduino'
p599
ssS'name'
p600
S'Arduino Ethernet'
p601
sg103
S'/usr/share/arduino/hardware/arduino'
p602
saa(lp603
S'fio'
p604
a(dp605
S'bootloader'
p606
(dp607
S'extended_fuses'
p608
S'0x05'
p609
sS'high_fuses'
p610
S'0xDA'
p611
sS'low_fuses'
p612
S'0xFF'
p613
sS'lock_bits'
p614
S'0x0F'
p615
sS'file'
p616
S'ATmegaBOOT_168_atmega328_pro_8MHz.hex'
p617
sS'path'
p618
S'arduino:atmega'
p619
sS'unlock_bits'
p620
S'0x3F'
p621
ssS'upload'
p622
(dp623
S'speed'
p624
S'57600'
p625
sS'maximum_size'
p626
S'30720'
p627
sS'protocol'
p628
S'arduino'
p629
ssS'build'
p630
(dp631
S'core'
p632
S'arduino'
p633
sS'mcu'
p634
S'atmega328p'
p635
sS'f_cpu'
p636
S'8000000L'
p637
sS'variant'
p638
S'eightanaloginputs'
p639
ssS'name'
p640
S'Arduino Fio'
p641
sg103
S'/usr/share/arduino/hardware/arduino'
p642
saa(lp643
S'bt328'
p644
a(dp645
S'bootloader'
p646
(dp647
S'extended_fuses'
p648
S'0x05'
p649
sS'high_fuses'
p650
S'0xd8'
p651
sS'low_fuses'
p652
S'0xff'
p653
sS'lock_bits'
p654
S'0x0F'
p655
sS'file'
p656
S'ATmegaBOOT_168_atmega328_bt.hex'
p657
sS'path'
p658
S'bt'
p659
sS'unlock_bits'
p660
S'0x3F'
p661
ssS'upload'
p662
(dp663
S'speed'
p664
S'19200'
p665
sS'maximum_size'
p666
S'28672'
p667
sS'protocol'
p668
S'arduino'
p669
sS'disable_flushing'
p670
S'true'
p671
ssS'build'
p672
(dp673
S'core'
p674
S'arduino'
p675
sS'mcu'
p676
S'atmega328p'
p677
sS'f_cpu'
p678
S'16000000L'
p679
sS'variant'
p680
S'eightanaloginputs'
p681
ssS'name'
p682
S'Arduino BT w/ ATmega328'
p683
sg103
S'/usr/share/arduino/hardware/arduino'
p684
saa(lp685
S'bt'
p686
a(dp687
S'bootloader'
p688
(dp689
S'extended_fuses'
p690
S'0x00'
p691
sS'high_fuses'
p692
S'0xdd'
p693
sS'low_fuses'
p694
S'0xff'
p695
sS'lock_bits'
p696
S'0x0F'
p697
sS'file'
p698
S'ATmegaBOOT_168.hex'
p699
sS'path'
p700
S'bt'
p701
sS'unlock_bits'
p702
S'0x3F'
p703
ssS'upload'
p704
(dp705
S'speed'
p706
S'19200'
p707
sS'maximum_size'
p708
S'14336'
p709
sS'protocol'
p710
S'arduino'
p711
sS'disable_flushing'
p712
S'true'
p713
ssS'build'
p714
(dp715
S'core'
p716
S'arduino'
p717
sS'mcu'
p718
S'atmega168'
p719
sS'f_cpu'
p720
S'16000000L'
p721
sS'variant'
p722
S'eightanaloginputs'
p723
ssS'name'
p724
S'Arduino BT w/ ATmega168'
p725
sg103
S'/usr/share/arduino/hardware/arduino'
p726
saa(lp727
S'LilyPadUSB'
p728
a(dp729
S'bootloader'
p730
(dp731
S'extended_fuses'
p732
S'0xce'
p733
sS'high_fuses'
p734
S'0xd8'
p735
sS'low_fuses'
p736
S'0xff'
p737
sS'lock_bits'
p738
S'0x2F'
p739
sS'file'
p740
S'Caterina-LilyPadUSB.hex'
p741
sS'path'
p742
S'caterina-LilyPadUSB'
p743
sS'unlock_bits'
p744
S'0x3F'
p745
ssS'upload'
p746
(dp747
S'speed'
p748
S'57600'
p749
sS'maximum_size'
p750
S'28672'
p751
sS'protocol'
p752
S'avr109'
p753
sS'disable_flushing'
p754
S'true'
p755
ssS'build'
p756
(dp757
S'core'
p758
S'arduino'
p759
sS'f_cpu'
p760
S'8000000L'
p761
sS'vid'
p762
S'0x1B4F'
p763
sS'pid'
p764
S'0x9208'
p765
sS'variant'
p766
S'leonardo'
p767
sS'mcu'
p768
S'atmega32u4'
p769
ssS'name'
p770
S'LilyPad Arduino USB'
p771
sg103
S'/usr/share/arduino/hardware/arduino'
p772
saa(lp773
S'lilypad328'
p774
a(dp775
S'bootloader'
p776
(dp777
S'extended_fuses'
p778
S'0x05'
p779
sS'high_fuses'
p780
S'0xDA'
p781
sS'low_fuses'
p782
S'0xFF'
p783
sS'lock_bits'
p784
S'0x0F'
p785
sS'file'
p786
S'ATmegaBOOT_168_atmega328_pro_8MHz.hex'
p787
sS'path'
p788
S'atmega'
p789
sS'unlock_bits'
p790
S'0x3F'
p791
ssS'upload'
p792
(dp793
S'speed'
p794
S'57600'
p795
sS'maximum_size'
p796
S'30720'
p797
sS'protocol'
p798
S'arduino'
p799
ssS'build'
p800
(dp801
S'core'
p802
S'arduino'
p803
sS'mcu'
p804
S'atmega328p'
p805
sS'f_cpu'
p806
S'8000000L'
p807
sS'variant'
p808
S'standard'
p809
ssS'name'
p810
S'LilyPad Arduino w/ ATmega328'
p811
sg103
S'/usr/share/arduino/hardware/arduino'
p812
saa(lp813
S'lilypad'
p814
a(dp815
S'bootloader'
p816
(dp817
S'extended_fuses'
p818
S'0x00'
p819
sS'high_fuses'
p820
S'0xdd'
p821
sS'low_fuses'
p822
S'0xe2'
p823
sS'lock_bits'
p824
S'0x0F'
p825
sS'file'
p826
S'LilyPadBOOT_168.hex'
p827
sS'path'
p828
S'lilypad'
p829
sS'unlock_bits'
p830
S'0x3F'
p831
ssS'upload'
p832
(dp833
S'speed'
p834
S'19200'
p835
sS'maximum_size'
p836
S'14336'
p837
sS'protocol'
p838
S'arduino'
p839
ssS'build'
p840
(dp841
S'core'
p842
S'arduino'
p843
sS'mcu'
p844
S'atmega168'
p845
sS'f_cpu'
p846
S'8000000L'
p847
sS'variant'
p848
S'standard'
p849
ssS'name'
p850
S'LilyPad Arduino w/ ATmega168'
p851
sg103
S'/usr/share/arduino/hardware/arduino'
p852
saa(lp853
S'pro5v328'
p854
a(dp855
S'bootloader'
p856
(dp857
S'extended_fuses'
p858
S'0x05'
p859
sS'high_fuses'
p860
S'0xDA'
p861
sS'low_fuses'
p862
S'0xFF'
p863
sS'lock_bits'
p864
S'0x0F'
p865
sS'file'
p866
S'ATmegaBOOT_168_atmega328.hex'
p867
sS'path'
p868
S'atmega'
p869
sS'unlock_bits'
p870
S'0x3F'
p871
ssS'upload'
p872
(dp873
S'speed'
p874
S'57600'
p875
sS'maximum_size'
p876
S'30720'
p877
sS'protocol'
p878
S'arduino'
p879
ssS'build'
p880
(dp881
S'core'
p882
S'arduino'
p883
sS'mcu'
p884
S'atmega328p'
p885
sS'f_cpu'
p886
S'16000000L'
p887
sS'variant'
p888
S'standard'
p889
ssS'name'
p890
S'Arduino Pro or Pro Mini (5V, 16 MHz) w/ ATmega328'
p891
sg103
S'/usr/share/arduino/hardware/arduino'
p892
saa(lp893
S'pro5v'
p894
a(dp895
S'bootloader'
p896
(dp897
S'extended_fuses'
p898
S'0x00'
p899
sS'high_fuses'
p900
S'0xdd'
p901
sS'low_fuses'
p902
S'0xff'
p903
sS'lock_bits'
p904
S'0x0F'
p905
sS'file'
p906
S'ATmegaBOOT_168_diecimila.hex'
p907
sS'path'
p908
S'atmega'
p909
sS'unlock_bits'
p910
S'0x3F'
p911
ssS'upload'
p912
(dp913
S'speed'
p914
S'19200'
p915
sS'maximum_size'
p916
S'14336'
p917
sS'protocol'
p918
S'arduino'
p919
ssS'build'
p920
(dp921
S'core'
p922
S'arduino'
p923
sS'mcu'
p924
S'atmega168'
p925
sS'f_cpu'
p926
S'16000000L'
p927
sS'variant'
p928
S'standard'
p929
ssS'name'
p930
S'Arduino Pro or Pro Mini (5V, 16 MHz) w/ ATmega168'
p931
sg103
S'/usr/share/arduino/hardware/arduino'
p932
saa(lp933
S'pro328'
p934
a(dp935
S'bootloader'
p936
(dp937
S'extended_fuses'
p938
S'0x05'
p939
sS'high_fuses'
p940
S'0xDA'
p941
sS'low_fuses'
p942
S'0xFF'
p943
sS'lock_bits'
p944
S'0x0F'
p945
sS'file'
p946
S'ATmegaBOOT_168_atmega328_pro_8MHz.hex'
p947
sS'path'
p948
S'atmega'
p949
sS'unlock_bits'
p950
S'0x3F'
p951
ssS'upload'
p952
(dp953
S'speed'
p954
S'57600'
p955
sS'maximum_size'
p956
S'30720'
p957
sS'protocol'
p958
S'arduino'
p959
ssS'build'
p960
(dp961
S'core'
p962
S'arduino'
p963
sS'mcu'
p964
S'atmega328p'
p965
sS'f_cpu'
p966
S'8000000L'
p967
sS'variant'
p968
S'standard'
p969
ssS'name'
p970
S'Arduino Pro or Pro Mini (3.3V, 8 MHz) w/ ATmega328'
p971
sg103
S'/usr/share/arduino/hardware/arduino'
p972
saa(lp973
S'pro'
p974
a(dp975
S'bootloader'
p976
(dp977
S'extended_fuses'
p978
S'0x00'
p979
sS'high_fuses'
p980
S'0xdd'
p981
sS'low_fuses'
p982
S'0xc6'
p983
sS'lock_bits'
p984
S'0x0F'
p985
sS'file'
p986
S'ATmegaBOOT_168_pro_8MHz.hex'
p987
sS'path'
p988
S'atmega'
p989
sS'unlock_bits'
p990
S'0x3F'
p991
ssS'upload'
p992
(dp993
S'speed'
p994
S'19200'
p995
sS'maximum_size'
p996
S'14336'
p997
sS'protocol'
p998
S'arduino'
p999
ssS'build'
p1000
(dp1001
S'core'
p1002
S'arduino'
p1003
sS'mcu'
p1004
S'atmega168'
p1005
sS'f_cpu'
p1006
S'8000000L'
p1007
sS'variant'
p1008
S'standard'
p1009
ssS'name'
p1010
S'Arduino Pro or Pro Mini (3.3V, 8 MHz) w/ ATmega168'
p1011
sg103
S'/usr/share/arduino/hardware/arduino'
p1012
saa(lp1013
S'atmega168'
p1014
a(dp1015
S'bootloader'
p1016
(dp1017
S'extended_fuses'
p1018
S'0x00'
p1019
sS'high_fuses'
p1020
S'0xdd'
p1021
sS'low_fuses'
p1022
S'0xff'
p1023
sS'lock_bits'
p1024
S'0x0F'
p1025
sS'file'
p1026
S'ATmegaBOOT_168_ng.hex'
p1027
sS'path'
p1028
S'atmega'
p1029
sS'unlock_bits'
p1030
S'0x3F'
p1031
ssS'upload'
p1032
(dp1033
S'speed'
p1034
S'19200'
p1035
sS'maximum_size'
p1036
S'14336'
p1037
sS'protocol'
p1038
S'arduino'
p1039
ssS'build'
p1040
(dp1041
S'core'
p1042
S'arduino'
p1043
sS'mcu'
p1044
S'atmega168'
p1045
sS'f_cpu'
p1046
S'16000000L'
p1047
sS'variant'
p1048
S'standard'
p1049
ssS'name'
p1050
S'Arduino NG or older w/ ATmega168'
p1051
sg103
S'/usr/share/arduino/hardware/arduino'
p1052
saa(lp1053
S'atmega8'
p1054
a(dp1055
S'bootloader'
p1056
(dp1057
S'high_fuses'
p1058
S'0xca'
p1059
sS'low_fuses'
p1060
S'0xdf'
p1061
sS'lock_bits'
p1062
S'0x0F'
p1063
sS'file'
p1064
S'ATmegaBOOT-prod-firmware-2009-11-07.hex'
p1065
sS'path'
p1066
S'atmega8'
p1067
sS'unlock_bits'
p1068
S'0x3F'
p1069
ssS'upload'
p1070
(dp1071
S'speed'
p1072
S'19200'
p1073
sS'maximum_size'
p1074
S'7168'
p1075
sS'protocol'
p1076
S'arduino'
p1077
ssS'build'
p1078
(dp1079
S'core'
p1080
S'arduino'
p1081
sS'mcu'
p1082
S'atmega8'
p1083
sS'f_cpu'
p1084
S'16000000L'
p1085
sS'variant'
p1086
S'standard'
p1087
ssS'name'
p1088
S'Arduino NG or older w/ ATmega8'
p1089
sg103
S'/usr/share/arduino/hardware/arduino'
p1090
saa(lp1091
S'robotControl'
p1092
a(dp1093
S'bootloader'
p1094
(dp1095
S'extended_fuses'
p1096
S'0xcb'
p1097
sS'high_fuses'
p1098
S'0xd8'
p1099
sS'low_fuses'
p1100
S'0xff'
p1101
sS'lock_bits'
p1102
S'0x2F'
p1103
sS'file'
p1104
S'Caterina-Robot-Control.hex'
p1105
sS'path'
p1106
S'caterina-Arduino_Robot'
p1107
sS'unlock_bits'
p1108
S'0x3F'
p1109
ssS'upload'
p1110
(dp1111
S'speed'
p1112
S'57600'
p1113
sS'maximum_size'
p1114
S'28672'
p1115
sS'protocol'
p1116
S'avr109'
p1117
sS'disable_flushing'
p1118
S'true'
p1119
ssS'build'
p1120
(dp1121
S'core'
p1122
S'robot'
p1123
sS'f_cpu'
p1124
S'16000000L'
p1125
sS'vid'
p1126
S'0x2341'
p1127
sS'pid'
p1128
S'0x8038'
p1129
sS'variant'
p1130
S'robot_control'
p1131
sS'mcu'
p1132
S'atmega32u4'
p1133
ssS'name'
p1134
S'Arduino Robot Control'
p1135
sg103
S'/usr/share/arduino/hardware/arduino'
p1136
saa(lp1137
S'robotMotor'
p1138
a(dp1139
S'bootloader'
p1140
(dp1141
S'extended_fuses'
p1142
S'0xcb'
p1143
sS'high_fuses'
p1144
S'0xd8'
p1145
sS'low_fuses'
p1146
S'0xff'
p1147
sS'lock_bits'
p1148
S'0x2F'
p1149
sS'file'
p1150
S'Caterina-Robot-Motor.hex'
p1151
sS'path'
p1152
S'caterina-Arduino_Robot'
p1153
sS'unlock_bits'
p1154
S'0x3F'
p1155
ssS'upload'
p1156
(dp1157
S'speed'
p1158
S'57600'
p1159
sS'maximum_size'
p1160
S'28672'
p1161
sS'protocol'
p1162
S'avr109'
p1163
sS'disable_flushing'
p1164
S'true'
p1165
ssS'build'
p1166
(dp1167
S'core'
p1168
S'robot'
p1169
sS'f_cpu'
p1170
S'16000000L'
p1171
sS'vid'
p1172
S'0x2341'
p1173
sS'pid'
p1174
S'0x8039'
p1175
sS'variant'
p1176
S'robot_motor'
p1177
sS'mcu'
p1178
S'atmega32u4'
p1179
ssS'name'
p1180
S'Arduino Robot Motor'
p1181
sg103
S'/usr/share/arduino/hardware/arduino'
p1182
saa(lp1183
S'attiny45'
p1184
a(dp1185
S'bootloader'
p1186
(dp1187
S'low_fuses'
p1188
S'0x62'
p1189
sS'extended_fuses'
p1190
S'0xff'
p1191
sS'high_fuses'
p1192
S'0xdf'
p1193
ssS'upload'
p1194
(dp1195
S'maximum_size'
p1196
S'4096'
p1197
ssS'build'
p1198
(dp1199
S'core'
p1200
S'arduino:arduino'
p1201
sS'mcu'
p1202
S'attiny45'
p1203
sS'f_cpu'
p1204
S'1000000L'
p1205
sS'variant'
p1206
S'tiny8'
p1207
ssS'name'
p1208
S'ATtiny45 (internal 1 MHz clock)'
p1209
sg103
S'/usr/share/arduino/hardware/attiny'
p1210
saa(lp1211
S'attiny45-8'
p1212
a(dp1213
S'bootloader'
p1214
(dp1215
S'low_fuses'
p1216
S'0xe2'
p1217
sS'extended_fuses'
p1218
S'0xff'
p1219
sS'high_fuses'
p1220
S'0xdf'
p1221
ssS'upload'
p1222
(dp1223
S'maximum_size'
p1224
S'4096'
p1225
ssS'build'
p1226
(dp1227
S'core'
p1228
S'arduino:arduino'
p1229
sS'mcu'
p1230
S'attiny45'
p1231
sS'f_cpu'
p1232
S'8000000L'
p1233
sS'variant'
p1234
S'tiny8'
p1235
ssS'name'
p1236
S'ATtiny45 (internal 8 MHz clock)'
p1237
sg103
S'/usr/share/arduino/hardware/attiny'
p1238
saa(lp1239
S'attiny45-20'
p1240
a(dp1241
S'bootloader'
p1242
(dp1243
S'low_fuses'
p1244
S'0xfe'
p1245
sS'extended_fuses'
p1246
S'0xff'
p1247
sS'high_fuses'
p1248
S'0xdf'
p1249
ssS'upload'
p1250
(dp1251
S'maximum_size'
p1252
S'4096'
p1253
ssS'build'
p1254
(dp1255
S'core'
p1256
S'arduino:arduino'
p1257
sS'mcu'
p1258
S'attiny45'
p1259
sS'f_cpu'
p1260
S'20000000L'
p1261
sS'variant'
p1262
S'tiny8'
p1263
ssS'name'
p1264
S'ATtiny45 (external 20 MHz clock)'
p1265
sg103
S'/usr/share/arduino/hardware/attiny'
p1266
saa(lp1267
S'attiny85'
p1268
a(dp1269
S'bootloader'
p1270
(dp1271
S'low_fuses'
p1272
S'0x62'
p1273
sS'extended_fuses'
p1274
S'0xff'
p1275
sS'high_fuses'
p1276
S'0xdf'
p1277
ssS'upload'
p1278
(dp1279
S'maximum_size'
p1280
S'8192'
p1281
ssS'build'
p1282
(dp1283
S'core'
p1284
S'arduino:arduino'
p1285
sS'mcu'
p1286
S'attiny85'
p1287
sS'f_cpu'
p1288
S'1000000L'
p1289
sS'variant'
p1290
S'tiny8'
p1291
ssS'name'
p1292
S'ATtiny85 (internal 1 MHz clock)'
p1293
sg103
S'/usr/share/arduino/hardware/attiny'
p1294
saa(lp1295
S'attiny85-8'
p1296
a(dp1297
S'bootloader'
p1298
(dp1299
S'low_fuses'
p1300
S'0xe2'
p1301
sS'extended_fuses'
p1302
S'0xff'
p1303
sS'high_fuses'
p1304
S'0xdf'
p1305
ssS'upload'
p1306
(dp1307
S'maximum_size'
p1308
S'8192'
p1309
ssS'build'
p1310
(dp1311
S'core'
p1312
S'arduino:arduino'
p1313
sS'mcu'
p1314
S'attiny85'
p1315
sS'f_cpu'
p1316
S'8000000L'
p1317
sS'variant'
p1318
S'tiny8'
p1319
ssS'name'
p1320
S'ATtiny85 (internal 8 MHz clock)'
p1321
sg103
S'/usr/share/arduino/hardware/attiny'
p1322
saa(lp1323
S'attiny85-20'
p1324
a(dp1325
S'bootloader'
p1326
(dp1327
S'low_fuses'
p1328
S'0xfe'
p1329
sS'extended_fuses'
p1330
S'0xff'
p1331
sS'high_fuses'
p1332
S'0xdf'
p1333
ssS'upload'
p1334
(dp1335
S'maximum_size'
p1336
S'8192'
p1337
ssS'build'
p1338
(dp1339
S'core'
p1340
S'arduino:arduino'
p1341
sS'mcu'
p1342
S'attiny85'
p1343
sS'f_cpu'
p1344
S'20000000L'
p1345
sS'variant'
p1346
S'tiny8'
p1347
ssS'name'
p1348
S'ATtiny85 (external 20 MHz clock)'
p1349
sg103
S'/usr/share/arduino/hardware/attiny'
p1350
saa(lp1351
S'attiny44'
p1352
a(dp1353
S'bootloader'
p1354
(dp1355
S'low_fuses'
p1356
S'0x62'
p1357
sS'extended_fuses'
p1358
S'0xff'
p1359
sS'high_fuses'
p1360
S'0xdf'
p1361
ssS'upload'
p1362
(dp1363
S'maximum_size'
p1364
S'4096'
p1365
ssS'build'
p1366
(dp1367
S'core'
p1368
S'arduino:arduino'
p1369
sS'mcu'
p1370
S'attiny44'
p1371
sS'f_cpu'
p1372
S'1000000L'
p1373
sS'variant'
p1374
S'tiny14'
p1375
ssS'name'
p1376
S'ATtiny44 (internal 1 MHz clock)'
p1377
sg103
S'/usr/share/arduino/hardware/attiny'
p1378
saa(lp1379
S'attiny44-8'
p1380
a(dp1381
S'bootloader'
p1382
(dp1383
S'low_fuses'
p1384
S'0xe2'
p1385
sS'extended_fuses'
p1386
S'0xff'
p1387
sS'high_fuses'
p1388
S'0xdf'
p1389
ssS'upload'
p1390
(dp1391
S'maximum_size'
p1392
S'4096'
p1393
ssS'build'
p1394
(dp1395
S'core'
p1396
S'arduino:arduino'
p1397
sS'mcu'
p1398
S'attiny44'
p1399
sS'f_cpu'
p1400
S'8000000L'
p1401
sS'variant'
p1402
S'tiny14'
p1403
ssS'name'
p1404
S'ATtiny44 (internal 8 MHz clock)'
p1405
sg103
S'/usr/share/arduino/hardware/attiny'
p1406
saa(lp1407
S'attiny44-20'
p1408
a(dp1409
S'bootloader'
p1410
(dp1411
S'low_fuses'
p1412
S'0xfe'
p1413
sS'extended_fuses'
p1414
S'0xff'
p1415
sS'high_fuses'
p1416
S'0xdf'
p1417
ssS'upload'
p1418
(dp1419
S'maximum_size'
p1420
S'4096'
p1421
ssS'build'
p1422
(dp1423
S'core'
p1424
S'arduino:arduino'
p1425
sS'mcu'
p1426
S'attiny44'
p1427
sS'f_cpu'
p1428
S'20000000L'
p1429
sS'variant'
p1430
S'tiny14'
p1431
ssS'name'
p1432
S'ATtiny44 (external 20 MHz clock)'
p1433
sg103
S'/usr/share/arduino/hardware/attiny'
p1434
saa(lp1435
S'attiny84'
p1436
a(dp1437
S'bootloader'
p1438
(dp1439
S'low_fuses'
p1440
S'0x62'
p1441
sS'extended_fuses'
p1442
S'0xff'
p1443
sS'high_fuses'
p1444
S'0xdf'
p1445
ssS'upload'
p1446
(dp1447
S'maximum_size'
p1448
S'8192'
p1449
ssS'build'
p1450
(dp1451
S'core'
p1452
S'arduino:arduino'
p1453
sS'mcu'
p1454
S'attiny84'
p1455
sS'f_cpu'
p1456
S'1000000L'
p1457
sS'variant'
p1458
S'tiny14'
p1459
ssS'name'
p1460
S'ATtiny84 (internal 1 MHz clock)'
p1461
sg103
S'/usr/share/arduino/hardware/attiny'
p1462
saa(lp1463
S'attiny84-8'
p1464
a(dp1465
S'bootloader'
p1466
(dp1467
S'low_fuses'
p1468
S'0xe2'
p1469
sS'extended_fuses'
p1470
S'0xff'
p1471
sS'high_fuses'
p1472
S'0xdf'
p1473
ssS'upload'
p1474
(dp1475
S'maximum_size'
p1476
S'8192'
p1477
ssS'build'
p1478
(dp1479
S'core'
p1480
S'arduino:arduino'
p1481
sS'mcu'
p1482
S'attiny84'
p1483
sS'f_cpu'
p1484
S'8000000L'
p1485
sS'variant'
p1486
S'tiny14'
p1487
ssS'name'
p1488
S'ATtiny84 (internal 8 MHz clock)'
p1489
sg103
S'/usr/share/arduino/hardware/attiny'
p1490
saa(lp1491
S'attiny84-20'
p1492
a(dp1493
S'bootloader'
p1494
(dp1495
S'low_fuses'
p1496
S'0xfe'
p1497
sS'extended_fuses'
p1498
S'0xff'
p1499
sS'high_fuses'
p1500
S'0xdf'
p1501
ssS'upload'
p1502
(dp1503
S'maximum_size'
p1504
S'8192'
p1505
ssS'build'
p1506
(dp1507
S'core'
p1508
S'arduino:arduino'
p1509
sS'mcu'
p1510
S'attiny84'
p1511
sS'f_cpu'
p1512
S'20000000L'
p1513
sS'variant'
p1514
S'tiny14'
p1515
ssS'name'
p1516
S'ATtiny84 (external 20 MHz clock)'
p1517
sg103
S'/usr/share/arduino/hardware/attiny'
p1518
saatp1519
Rp1520
(dp1521
S'default'
p1522
S'uno'
p1523
sbtp1524
a(S'used_libs'
p1525
(lp1526
S'/usr/share/arduino/hardware/arduino/cores/arduino'
p1527
atp1528
a(S'make'
p1529
S'/usr/bin/make'
p1530
tp1531
a(S'build_dir'
p1532
S'.build/uno'
p1533
tp1534
a(S'cc'
p1535
S'/usr/share/arduino/hardware/tools/avr/bin/avr-gcc'
p1536
tp1537
a(S'cflags'
p1538
g2
(g3
g4
(lp1539
tp1540
Rp1541
tp1542
a(S'cxxflags'
p1543
g2
(g3
g4
(lp1544
S'-fno-exceptions'
p1545
atp1546
Rp1547
tp1548
a(S'arduino_variants_dir'
p1549
S'/usr/share/arduino/hardware/arduino/variants'
p1550
tp1551
a(S'stty'
p1552
S'/bin/stty'
p1553
tp1554
a(S'version.txt'
p1555
S'/usr/share/arduino/lib/version.txt'
p1556
tp1557
a(S'arduino_core_dir'
p1558
g1527
tp1559
a(S'boards.txt'
p1560
(lp1561
S'/usr/share/arduino/hardware/arduino/boards.txt'
p1562
aS'/usr/share/arduino/hardware/attiny/boards.txt'
p1563
atp1564
a(S'avrdude.conf'
p1565
S'/usr/share/arduino/hardware/tools/avrdude.conf'
p1566
tp1567
a(S'deps'
p1568
g2
(g3
g4
(lp1569
S'.build/uno/src/dependencies.d'
p1570
aS'.build/uno/arduino/dependencies.d'
p1571
atp1572
Rp1573
tp1574
a.