(lp0
(S'cppflags'
p1
ccopy_reg
_reconstructor
p2
(cino.utils
SpaceList
p3
c__builtin__
list
p4
(lp5
S'-mmcu=atmega328p'
p6
aS'-DF_CPU=16000000L'
p7
aS'-DARDUINO=105'
p8
aS'-I/usr/share/arduino/hardware/attiny/cores/arduino'
p9
aS'-ffunction-sections'
p10
aS'-fdata-sections'
p11
aS'-g'
p12
aS'-Os'
p13
aS'-w'
p14
aS'-I/usr/share/arduino/hardware/attiny/variants/standard'
p15
atp16
Rp17
tp18
a(S'cxx'
p19
S'/usr/share/arduino/hardware/tools/avr/bin/avr-g++'
p20
tp21
a(S'version.txt'
p22
S'/usr/share/arduino/lib/version.txt'
p23
tp24
a(S'used_libs'
p25
(lp26
tp27
a(S'cc'
p28
S'/usr/share/arduino/hardware/tools/avr/bin/avr-gcc'
p29
tp30
a(S'make'
p31
S'/usr/share/arduino/hardware/tools/avr/bin/make'
p32
tp33
a(S'cflags'
p34
g2
(g3
g4
(lp35
tp36
Rp37
tp38
a(S'build_dir'
p39
S'.build/uno'
p40
tp41
a(S'arduino_core_dir'
p42
S'/usr/share/arduino/hardware/attiny/cores/arduino'
p43
tp44
a(S'boards.txt'
p45
(lp46
S'/usr/share/arduino/hardware/arduino/boards.txt'
p47
aS'/usr/share/arduino/hardware/attiny/boards.txt'
p48
atp49
a(S'cxxflags'
p50
g2
(g3
g4
(lp51
S'-fno-exceptions'
p52
atp53
Rp54
tp55
a(S'arduino_variants_dir'
p56
S'/usr/share/arduino/hardware/attiny/variants'
p57
tp58
a(S'ar'
p59
S'/usr/share/arduino/hardware/tools/avr/bin/avr-ar'
p60
tp61
a(S'names'
p62
(dp63
S'cpp'
p64
S'%s.cpp'
p65
sS'obj'
p66
S'%s.o'
p67
sS'deps'
p68
S'%s.d'
p69
sS'lib'
p70
S'lib%s.a'
p71
stp72
a(S'deps'
p73
g2
(g3
g4
(lp74
S'.build/uno/src/dependencies.d'
p75
atp76
Rp77
tp78
a(S'arduino_libraries_dir'
p79
S'/usr/share/arduino/libraries'
p80
tp81
a(S'arduino_lib_version'
p82
g2
(cino.environment
Version
p83
c__builtin__
tuple
p84
(I1
I0
I5
tp85
tp86
Rp87
tp88
a(S'objcopy'
p89
S'/usr/share/arduino/hardware/tools/avr/bin/avr-objcopy'
p90
tp91
a(S'board_models'
p92
cino.environment
BoardModels
p93
((lp94
(lp95
S'uno'
p96
a(dp97
S'_coredir'
p98
S'/usr/share/arduino/hardware/arduino'
p99
sS'bootloader'
p100
(dp101
S'extended_fuses'
p102
S'0x05'
p103
sS'high_fuses'
p104
S'0xde'
p105
sS'low_fuses'
p106
S'0xff'
p107
sS'lock_bits'
p108
S'0x0F'
p109
sS'file'
p110
S'optiboot_atmega328.hex'
p111
sS'path'
p112
S'optiboot'
p113
sS'unlock_bits'
p114
S'0x3F'
p115
ssS'build'
p116
(dp117
S'core'
p118
S'arduino'
p119
sS'mcu'
p120
S'atmega328p'
p121
sS'f_cpu'
p122
S'16000000L'
p123
sS'variant'
p124
S'standard'
p125
ssS'name'
p126
S'Arduino Uno'
p127
sS'upload'
p128
(dp129
S'protocol'
p130
S'arduino'
p131
sS'maximum_size'
p132
S'32256'
p133
sS'speed'
p134
S'115200'
p135
ssaa(lp136
S'atmega328'
p137
a(dp138
g98
S'/usr/share/arduino/hardware/arduino'
p139
sS'bootloader'
p140
(dp141
S'extended_fuses'
p142
S'0x05'
p143
sS'high_fuses'
p144
S'0xDA'
p145
sS'low_fuses'
p146
S'0xFF'
p147
sS'lock_bits'
p148
S'0x0F'
p149
sS'file'
p150
S'ATmegaBOOT_168_atmega328.hex'
p151
sS'path'
p152
S'atmega'
p153
sS'unlock_bits'
p154
S'0x3F'
p155
ssS'build'
p156
(dp157
S'core'
p158
S'arduino'
p159
sS'mcu'
p160
S'atmega328p'
p161
sS'f_cpu'
p162
S'16000000L'
p163
sS'variant'
p164
S'standard'
p165
ssS'name'
p166
S'Arduino Duemilanove w/ ATmega328'
p167
sS'upload'
p168
(dp169
S'protocol'
p170
S'arduino'
p171
sS'maximum_size'
p172
S'30720'
p173
sS'speed'
p174
S'57600'
p175
ssaa(lp176
S'diecimila'
p177
a(dp178
g98
S'/usr/share/arduino/hardware/arduino'
p179
sS'bootloader'
p180
(dp181
S'extended_fuses'
p182
S'0x00'
p183
sS'high_fuses'
p184
S'0xdd'
p185
sS'low_fuses'
p186
S'0xff'
p187
sS'lock_bits'
p188
S'0x0F'
p189
sS'file'
p190
S'ATmegaBOOT_168_diecimila.hex'
p191
sS'path'
p192
S'atmega'
p193
sS'unlock_bits'
p194
S'0x3F'
p195
ssS'build'
p196
(dp197
S'core'
p198
S'arduino'
p199
sS'mcu'
p200
S'atmega168'
p201
sS'f_cpu'
p202
S'16000000L'
p203
sS'variant'
p204
S'standard'
p205
ssS'name'
p206
S'Arduino Diecimila or Duemilanove w/ ATmega168'
p207
sS'upload'
p208
(dp209
S'protocol'
p210
S'arduino'
p211
sS'maximum_size'
p212
S'14336'
p213
sS'speed'
p214
S'19200'
p215
ssaa(lp216
S'nano328'
p217
a(dp218
g98
S'/usr/share/arduino/hardware/arduino'
p219
sS'bootloader'
p220
(dp221
S'extended_fuses'
p222
S'0x05'
p223
sS'high_fuses'
p224
S'0xDA'
p225
sS'low_fuses'
p226
S'0xFF'
p227
sS'lock_bits'
p228
S'0x0F'
p229
sS'file'
p230
S'ATmegaBOOT_168_atmega328.hex'
p231
sS'path'
p232
S'atmega'
p233
sS'unlock_bits'
p234
S'0x3F'
p235
ssS'build'
p236
(dp237
S'core'
p238
S'arduino'
p239
sS'mcu'
p240
S'atmega328p'
p241
sS'f_cpu'
p242
S'16000000L'
p243
sS'variant'
p244
S'eightanaloginputs'
p245
ssS'name'
p246
S'Arduino Nano w/ ATmega328'
p247
sS'upload'
p248
(dp249
S'protocol'
p250
S'arduino'
p251
sS'maximum_size'
p252
S'30720'
p253
sS'speed'
p254
S'57600'
p255
ssaa(lp256
S'nano'
p257
a(dp258
g98
S'/usr/share/arduino/hardware/arduino'
p259
sS'bootloader'
p260
(dp261
S'extended_fuses'
p262
S'0x00'
p263
sS'high_fuses'
p264
S'0xdd'
p265
sS'low_fuses'
p266
S'0xff'
p267
sS'lock_bits'
p268
S'0x0F'
p269
sS'file'
p270
S'ATmegaBOOT_168_diecimila.hex'
p271
sS'path'
p272
S'atmega'
p273
sS'unlock_bits'
p274
S'0x3F'
p275
ssS'build'
p276
(dp277
S'core'
p278
S'arduino'
p279
sS'mcu'
p280
S'atmega168'
p281
sS'f_cpu'
p282
S'16000000L'
p283
sS'variant'
p284
S'eightanaloginputs'
p285
ssS'name'
p286
S'Arduino Nano w/ ATmega168'
p287
sS'upload'
p288
(dp289
S'protocol'
p290
S'arduino'
p291
sS'maximum_size'
p292
S'14336'
p293
sS'speed'
p294
S'19200'
p295
ssaa(lp296
S'mega2560'
p297
a(dp298
g98
S'/usr/share/arduino/hardware/arduino'
p299
sS'bootloader'
p300
(dp301
S'extended_fuses'
p302
S'0xFD'
p303
sS'high_fuses'
p304
S'0xD8'
p305
sS'low_fuses'
p306
S'0xFF'
p307
sS'lock_bits'
p308
S'0x0F'
p309
sS'file'
p310
S'stk500boot_v2_mega2560.hex'
p311
sS'path'
p312
S'stk500v2'
p313
sS'unlock_bits'
p314
S'0x3F'
p315
ssS'build'
p316
(dp317
S'core'
p318
S'arduino'
p319
sS'mcu'
p320
S'atmega2560'
p321
sS'f_cpu'
p322
S'16000000L'
p323
sS'variant'
p324
S'mega'
p325
ssS'name'
p326
S'Arduino Mega 2560 or Mega ADK'
p327
sS'upload'
p328
(dp329
S'protocol'
p330
S'wiring'
p331
sS'maximum_size'
p332
S'258048'
p333
sS'speed'
p334
S'115200'
p335
ssaa(lp336
S'mega'
p337
a(dp338
g98
S'/usr/share/arduino/hardware/arduino'
p339
sS'bootloader'
p340
(dp341
S'extended_fuses'
p342
S'0xF5'
p343
sS'high_fuses'
p344
S'0xDA'
p345
sS'low_fuses'
p346
S'0xFF'
p347
sS'lock_bits'
p348
S'0x0F'
p349
sS'file'
p350
S'ATmegaBOOT_168_atmega1280.hex'
p351
sS'path'
p352
S'atmega'
p353
sS'unlock_bits'
p354
S'0x3F'
p355
ssS'build'
p356
(dp357
S'core'
p358
S'arduino'
p359
sS'mcu'
p360
S'atmega1280'
p361
sS'f_cpu'
p362
S'16000000L'
p363
sS'variant'
p364
S'mega'
p365
ssS'name'
p366
S'Arduino Mega (ATmega1280)'
p367
sS'upload'
p368
(dp369
S'protocol'
p370
S'arduino'
p371
sS'maximum_size'
p372
S'126976'
p373
sS'speed'
p374
S'57600'
p375
ssaa(lp376
S'leonardo'
p377
a(dp378
g98
S'/usr/share/arduino/hardware/arduino'
p379
sS'bootloader'
p380
(dp381
S'extended_fuses'
p382
S'0xcb'
p383
sS'high_fuses'
p384
S'0xd8'
p385
sS'low_fuses'
p386
S'0xff'
p387
sS'lock_bits'
p388
S'0x2F'
p389
sS'file'
p390
S'Caterina-Leonardo.hex'
p391
sS'path'
p392
S'caterina'
p393
sS'unlock_bits'
p394
S'0x3F'
p395
ssS'build'
p396
(dp397
S'core'
p398
S'arduino'
p399
sS'f_cpu'
p400
S'16000000L'
p401
sS'vid'
p402
S'0x2341'
p403
sS'pid'
p404
S'0x8036'
p405
sS'variant'
p406
S'leonardo'
p407
sS'mcu'
p408
S'atmega32u4'
p409
ssS'name'
p410
S'Arduino Leonardo'
p411
sS'upload'
p412
(dp413
S'protocol'
p414
S'avr109'
p415
sS'maximum_size'
p416
S'28672'
p417
sS'speed'
p418
S'57600'
p419
sS'disable_flushing'
p420
S'true'
p421
ssaa(lp422
S'esplora'
p423
a(dp424
g98
S'/usr/share/arduino/hardware/arduino'
p425
sS'bootloader'
p426
(dp427
S'extended_fuses'
p428
S'0xcb'
p429
sS'high_fuses'
p430
S'0xd8'
p431
sS'low_fuses'
p432
S'0xff'
p433
sS'lock_bits'
p434
S'0x2F'
p435
sS'file'
p436
S'Caterina-Esplora.hex'
p437
sS'path'
p438
S'caterina'
p439
sS'unlock_bits'
p440
S'0x3F'
p441
ssS'build'
p442
(dp443
S'core'
p444
S'arduino'
p445
sS'f_cpu'
p446
S'16000000L'
p447
sS'vid'
p448
S'0x2341'
p449
sS'pid'
p450
S'0x803C'
p451
sS'variant'
p452
S'leonardo'
p453
sS'mcu'
p454
S'atmega32u4'
p455
ssS'name'
p456
S'Arduino Esplora'
p457
sS'upload'
p458
(dp459
S'protocol'
p460
S'avr109'
p461
sS'maximum_size'
p462
S'28672'
p463
sS'speed'
p464
S'57600'
p465
sS'disable_flushing'
p466
S'true'
p467
ssaa(lp468
S'micro'
p469
a(dp470
g98
S'/usr/share/arduino/hardware/arduino'
p471
sS'bootloader'
p472
(dp473
S'extended_fuses'
p474
S'0xcb'
p475
sS'high_fuses'
p476
S'0xd8'
p477
sS'low_fuses'
p478
S'0xff'
p479
sS'lock_bits'
p480
S'0x2F'
p481
sS'file'
p482
S'Caterina-Micro.hex'
p483
sS'path'
p484
S'caterina'
p485
sS'unlock_bits'
p486
S'0x3F'
p487
ssS'build'
p488
(dp489
S'core'
p490
S'arduino'
p491
sS'f_cpu'
p492
S'16000000L'
p493
sS'vid'
p494
S'0x2341'
p495
sS'pid'
p496
S'0x8037'
p497
sS'variant'
p498
S'micro'
p499
sS'mcu'
p500
S'atmega32u4'
p501
ssS'name'
p502
S'Arduino Micro'
p503
sS'upload'
p504
(dp505
S'protocol'
p506
S'avr109'
p507
sS'maximum_size'
p508
S'28672'
p509
sS'speed'
p510
S'57600'
p511
sS'disable_flushing'
p512
S'true'
p513
ssaa(lp514
S'mini328'
p515
a(dp516
g98
S'/usr/share/arduino/hardware/arduino'
p517
sS'bootloader'
p518
(dp519
S'extended_fuses'
p520
S'0x05'
p521
sS'high_fuses'
p522
S'0xd8'
p523
sS'low_fuses'
p524
S'0xff'
p525
sS'lock_bits'
p526
S'0x0F'
p527
sS'file'
p528
S'optiboot_atmega328-Mini.hex'
p529
sS'path'
p530
S'optiboot'
p531
sS'unlock_bits'
p532
S'0x3F'
p533
ssS'build'
p534
(dp535
S'core'
p536
S'arduino'
p537
sS'mcu'
p538
S'atmega328p'
p539
sS'f_cpu'
p540
S'16000000L'
p541
sS'variant'
p542
S'eightanaloginputs'
p543
ssS'name'
p544
S'Arduino Mini w/ ATmega328'
p545
sS'upload'
p546
(dp547
S'protocol'
p548
S'arduino'
p549
sS'maximum_size'
p550
S'28672'
p551
sS'speed'
p552
S'115200'
p553
ssaa(lp554
S'mini'
p555
a(dp556
g98
S'/usr/share/arduino/hardware/arduino'
p557
sS'bootloader'
p558
(dp559
S'extended_fuses'
p560
S'0x00'
p561
sS'high_fuses'
p562
S'0xdd'
p563
sS'low_fuses'
p564
S'0xff'
p565
sS'lock_bits'
p566
S'0x0F'
p567
sS'file'
p568
S'ATmegaBOOT_168_ng.hex'
p569
sS'path'
p570
S'atmega'
p571
sS'unlock_bits'
p572
S'0x3F'
p573
ssS'build'
p574
(dp575
S'core'
p576
S'arduino'
p577
sS'mcu'
p578
S'atmega168'
p579
sS'f_cpu'
p580
S'16000000L'
p581
sS'variant'
p582
S'eightanaloginputs'
p583
ssS'name'
p584
S'Arduino Mini w/ ATmega168'
p585
sS'upload'
p586
(dp587
S'protocol'
p588
S'arduino'
p589
sS'maximum_size'
p590
S'14336'
p591
sS'speed'
p592
S'19200'
p593
ssaa(lp594
S'ethernet'
p595
a(dp596
g98
S'/usr/share/arduino/hardware/arduino'
p597
sS'bootloader'
p598
(dp599
S'extended_fuses'
p600
S'0x05'
p601
sS'high_fuses'
p602
S'0xde'
p603
sS'low_fuses'
p604
S'0xff'
p605
sS'lock_bits'
p606
S'0x0F'
p607
sS'file'
p608
S'optiboot_atmega328.hex'
p609
sS'path'
p610
S'optiboot'
p611
sS'unlock_bits'
p612
S'0x3F'
p613
ssS'build'
p614
(dp615
S'variant'
p616
S'standard'
p617
sS'mcu'
p618
S'atmega328p'
p619
sS'f_cpu'
p620
S'16000000L'
p621
sS'core'
p622
S'arduino'
p623
ssS'name'
p624
S'Arduino Ethernet'
p625
sS'upload'
p626
(dp627
S'protocol'
p628
S'arduino'
p629
sS'maximum_size'
p630
S'32256'
p631
sS'speed'
p632
S'115200'
p633
ssaa(lp634
S'fio'
p635
a(dp636
g98
S'/usr/share/arduino/hardware/arduino'
p637
sS'bootloader'
p638
(dp639
S'extended_fuses'
p640
S'0x05'
p641
sS'high_fuses'
p642
S'0xDA'
p643
sS'low_fuses'
p644
S'0xFF'
p645
sS'lock_bits'
p646
S'0x0F'
p647
sS'file'
p648
S'ATmegaBOOT_168_atmega328_pro_8MHz.hex'
p649
sS'path'
p650
S'arduino:atmega'
p651
sS'unlock_bits'
p652
S'0x3F'
p653
ssS'build'
p654
(dp655
S'core'
p656
S'arduino'
p657
sS'mcu'
p658
S'atmega328p'
p659
sS'f_cpu'
p660
S'8000000L'
p661
sS'variant'
p662
S'eightanaloginputs'
p663
ssS'name'
p664
S'Arduino Fio'
p665
sS'upload'
p666
(dp667
S'protocol'
p668
S'arduino'
p669
sS'maximum_size'
p670
S'30720'
p671
sS'speed'
p672
S'57600'
p673
ssaa(lp674
S'bt328'
p675
a(dp676
g98
S'/usr/share/arduino/hardware/arduino'
p677
sS'bootloader'
p678
(dp679
S'extended_fuses'
p680
S'0x05'
p681
sS'high_fuses'
p682
S'0xd8'
p683
sS'low_fuses'
p684
S'0xff'
p685
sS'lock_bits'
p686
S'0x0F'
p687
sS'file'
p688
S'ATmegaBOOT_168_atmega328_bt.hex'
p689
sS'path'
p690
S'bt'
p691
sS'unlock_bits'
p692
S'0x3F'
p693
ssS'build'
p694
(dp695
S'core'
p696
S'arduino'
p697
sS'mcu'
p698
S'atmega328p'
p699
sS'f_cpu'
p700
S'16000000L'
p701
sS'variant'
p702
S'eightanaloginputs'
p703
ssS'name'
p704
S'Arduino BT w/ ATmega328'
p705
sS'upload'
p706
(dp707
S'protocol'
p708
S'arduino'
p709
sS'maximum_size'
p710
S'28672'
p711
sS'speed'
p712
S'19200'
p713
sS'disable_flushing'
p714
S'true'
p715
ssaa(lp716
S'bt'
p717
a(dp718
g98
S'/usr/share/arduino/hardware/arduino'
p719
sS'bootloader'
p720
(dp721
S'extended_fuses'
p722
S'0x00'
p723
sS'high_fuses'
p724
S'0xdd'
p725
sS'low_fuses'
p726
S'0xff'
p727
sS'lock_bits'
p728
S'0x0F'
p729
sS'file'
p730
S'ATmegaBOOT_168.hex'
p731
sS'path'
p732
S'bt'
p733
sS'unlock_bits'
p734
S'0x3F'
p735
ssS'build'
p736
(dp737
S'core'
p738
S'arduino'
p739
sS'mcu'
p740
S'atmega168'
p741
sS'f_cpu'
p742
S'16000000L'
p743
sS'variant'
p744
S'eightanaloginputs'
p745
ssS'name'
p746
S'Arduino BT w/ ATmega168'
p747
sS'upload'
p748
(dp749
S'protocol'
p750
S'arduino'
p751
sS'maximum_size'
p752
S'14336'
p753
sS'speed'
p754
S'19200'
p755
sS'disable_flushing'
p756
S'true'
p757
ssaa(lp758
S'LilyPadUSB'
p759
a(dp760
g98
S'/usr/share/arduino/hardware/arduino'
p761
sS'bootloader'
p762
(dp763
S'extended_fuses'
p764
S'0xce'
p765
sS'high_fuses'
p766
S'0xd8'
p767
sS'low_fuses'
p768
S'0xff'
p769
sS'lock_bits'
p770
S'0x2F'
p771
sS'file'
p772
S'Caterina-LilyPadUSB.hex'
p773
sS'path'
p774
S'caterina-LilyPadUSB'
p775
sS'unlock_bits'
p776
S'0x3F'
p777
ssS'build'
p778
(dp779
S'core'
p780
S'arduino'
p781
sS'f_cpu'
p782
S'8000000L'
p783
sS'vid'
p784
S'0x1B4F'
p785
sS'pid'
p786
S'0x9208'
p787
sS'variant'
p788
S'leonardo'
p789
sS'mcu'
p790
S'atmega32u4'
p791
ssS'name'
p792
S'LilyPad Arduino USB'
p793
sS'upload'
p794
(dp795
S'protocol'
p796
S'avr109'
p797
sS'maximum_size'
p798
S'28672'
p799
sS'speed'
p800
S'57600'
p801
sS'disable_flushing'
p802
S'true'
p803
ssaa(lp804
S'lilypad328'
p805
a(dp806
g98
S'/usr/share/arduino/hardware/arduino'
p807
sS'bootloader'
p808
(dp809
S'extended_fuses'
p810
S'0x05'
p811
sS'high_fuses'
p812
S'0xDA'
p813
sS'low_fuses'
p814
S'0xFF'
p815
sS'lock_bits'
p816
S'0x0F'
p817
sS'file'
p818
S'ATmegaBOOT_168_atmega328_pro_8MHz.hex'
p819
sS'path'
p820
S'atmega'
p821
sS'unlock_bits'
p822
S'0x3F'
p823
ssS'build'
p824
(dp825
S'core'
p826
S'arduino'
p827
sS'mcu'
p828
S'atmega328p'
p829
sS'f_cpu'
p830
S'8000000L'
p831
sS'variant'
p832
S'standard'
p833
ssS'name'
p834
S'LilyPad Arduino w/ ATmega328'
p835
sS'upload'
p836
(dp837
S'protocol'
p838
S'arduino'
p839
sS'maximum_size'
p840
S'30720'
p841
sS'speed'
p842
S'57600'
p843
ssaa(lp844
S'lilypad'
p845
a(dp846
g98
S'/usr/share/arduino/hardware/arduino'
p847
sS'bootloader'
p848
(dp849
S'extended_fuses'
p850
S'0x00'
p851
sS'high_fuses'
p852
S'0xdd'
p853
sS'low_fuses'
p854
S'0xe2'
p855
sS'lock_bits'
p856
S'0x0F'
p857
sS'file'
p858
S'LilyPadBOOT_168.hex'
p859
sS'path'
p860
S'lilypad'
p861
sS'unlock_bits'
p862
S'0x3F'
p863
ssS'build'
p864
(dp865
S'core'
p866
S'arduino'
p867
sS'mcu'
p868
S'atmega168'
p869
sS'f_cpu'
p870
S'8000000L'
p871
sS'variant'
p872
S'standard'
p873
ssS'name'
p874
S'LilyPad Arduino w/ ATmega168'
p875
sS'upload'
p876
(dp877
S'protocol'
p878
S'arduino'
p879
sS'maximum_size'
p880
S'14336'
p881
sS'speed'
p882
S'19200'
p883
ssaa(lp884
S'pro5v328'
p885
a(dp886
g98
S'/usr/share/arduino/hardware/arduino'
p887
sS'bootloader'
p888
(dp889
S'extended_fuses'
p890
S'0x05'
p891
sS'high_fuses'
p892
S'0xDA'
p893
sS'low_fuses'
p894
S'0xFF'
p895
sS'lock_bits'
p896
S'0x0F'
p897
sS'file'
p898
S'ATmegaBOOT_168_atmega328.hex'
p899
sS'path'
p900
S'atmega'
p901
sS'unlock_bits'
p902
S'0x3F'
p903
ssS'build'
p904
(dp905
S'core'
p906
S'arduino'
p907
sS'mcu'
p908
S'atmega328p'
p909
sS'f_cpu'
p910
S'16000000L'
p911
sS'variant'
p912
S'standard'
p913
ssS'name'
p914
S'Arduino Pro or Pro Mini (5V, 16 MHz) w/ ATmega328'
p915
sS'upload'
p916
(dp917
S'protocol'
p918
S'arduino'
p919
sS'maximum_size'
p920
S'30720'
p921
sS'speed'
p922
S'57600'
p923
ssaa(lp924
S'pro5v'
p925
a(dp926
g98
S'/usr/share/arduino/hardware/arduino'
p927
sS'bootloader'
p928
(dp929
S'extended_fuses'
p930
S'0x00'
p931
sS'high_fuses'
p932
S'0xdd'
p933
sS'low_fuses'
p934
S'0xff'
p935
sS'lock_bits'
p936
S'0x0F'
p937
sS'file'
p938
S'ATmegaBOOT_168_diecimila.hex'
p939
sS'path'
p940
S'atmega'
p941
sS'unlock_bits'
p942
S'0x3F'
p943
ssS'build'
p944
(dp945
S'core'
p946
S'arduino'
p947
sS'mcu'
p948
S'atmega168'
p949
sS'f_cpu'
p950
S'16000000L'
p951
sS'variant'
p952
S'standard'
p953
ssS'name'
p954
S'Arduino Pro or Pro Mini (5V, 16 MHz) w/ ATmega168'
p955
sS'upload'
p956
(dp957
S'protocol'
p958
S'arduino'
p959
sS'maximum_size'
p960
S'14336'
p961
sS'speed'
p962
S'19200'
p963
ssaa(lp964
S'pro328'
p965
a(dp966
g98
S'/usr/share/arduino/hardware/arduino'
p967
sS'bootloader'
p968
(dp969
S'extended_fuses'
p970
S'0x05'
p971
sS'high_fuses'
p972
S'0xDA'
p973
sS'low_fuses'
p974
S'0xFF'
p975
sS'lock_bits'
p976
S'0x0F'
p977
sS'file'
p978
S'ATmegaBOOT_168_atmega328_pro_8MHz.hex'
p979
sS'path'
p980
S'atmega'
p981
sS'unlock_bits'
p982
S'0x3F'
p983
ssS'build'
p984
(dp985
S'core'
p986
S'arduino'
p987
sS'mcu'
p988
S'atmega328p'
p989
sS'f_cpu'
p990
S'8000000L'
p991
sS'variant'
p992
S'standard'
p993
ssS'name'
p994
S'Arduino Pro or Pro Mini (3.3V, 8 MHz) w/ ATmega328'
p995
sS'upload'
p996
(dp997
S'protocol'
p998
S'arduino'
p999
sS'maximum_size'
p1000
S'30720'
p1001
sS'speed'
p1002
S'57600'
p1003
ssaa(lp1004
S'pro'
p1005
a(dp1006
g98
S'/usr/share/arduino/hardware/arduino'
p1007
sS'bootloader'
p1008
(dp1009
S'extended_fuses'
p1010
S'0x00'
p1011
sS'high_fuses'
p1012
S'0xdd'
p1013
sS'low_fuses'
p1014
S'0xc6'
p1015
sS'lock_bits'
p1016
S'0x0F'
p1017
sS'file'
p1018
S'ATmegaBOOT_168_pro_8MHz.hex'
p1019
sS'path'
p1020
S'atmega'
p1021
sS'unlock_bits'
p1022
S'0x3F'
p1023
ssS'build'
p1024
(dp1025
S'core'
p1026
S'arduino'
p1027
sS'mcu'
p1028
S'atmega168'
p1029
sS'f_cpu'
p1030
S'8000000L'
p1031
sS'variant'
p1032
S'standard'
p1033
ssS'name'
p1034
S'Arduino Pro or Pro Mini (3.3V, 8 MHz) w/ ATmega168'
p1035
sS'upload'
p1036
(dp1037
S'protocol'
p1038
S'arduino'
p1039
sS'maximum_size'
p1040
S'14336'
p1041
sS'speed'
p1042
S'19200'
p1043
ssaa(lp1044
S'atmega168'
p1045
a(dp1046
g98
S'/usr/share/arduino/hardware/arduino'
p1047
sS'bootloader'
p1048
(dp1049
S'extended_fuses'
p1050
S'0x00'
p1051
sS'high_fuses'
p1052
S'0xdd'
p1053
sS'low_fuses'
p1054
S'0xff'
p1055
sS'lock_bits'
p1056
S'0x0F'
p1057
sS'file'
p1058
S'ATmegaBOOT_168_ng.hex'
p1059
sS'path'
p1060
S'atmega'
p1061
sS'unlock_bits'
p1062
S'0x3F'
p1063
ssS'build'
p1064
(dp1065
S'core'
p1066
S'arduino'
p1067
sS'mcu'
p1068
S'atmega168'
p1069
sS'f_cpu'
p1070
S'16000000L'
p1071
sS'variant'
p1072
S'standard'
p1073
ssS'name'
p1074
S'Arduino NG or older w/ ATmega168'
p1075
sS'upload'
p1076
(dp1077
S'protocol'
p1078
S'arduino'
p1079
sS'maximum_size'
p1080
S'14336'
p1081
sS'speed'
p1082
S'19200'
p1083
ssaa(lp1084
S'atmega8'
p1085
a(dp1086
g98
S'/usr/share/arduino/hardware/arduino'
p1087
sS'bootloader'
p1088
(dp1089
S'high_fuses'
p1090
S'0xca'
p1091
sS'low_fuses'
p1092
S'0xdf'
p1093
sS'lock_bits'
p1094
S'0x0F'
p1095
sS'file'
p1096
S'ATmegaBOOT-prod-firmware-2009-11-07.hex'
p1097
sS'path'
p1098
S'atmega8'
p1099
sS'unlock_bits'
p1100
S'0x3F'
p1101
ssS'build'
p1102
(dp1103
S'core'
p1104
S'arduino'
p1105
sS'mcu'
p1106
S'atmega8'
p1107
sS'f_cpu'
p1108
S'16000000L'
p1109
sS'variant'
p1110
S'standard'
p1111
ssS'name'
p1112
S'Arduino NG or older w/ ATmega8'
p1113
sS'upload'
p1114
(dp1115
S'protocol'
p1116
S'arduino'
p1117
sS'maximum_size'
p1118
S'7168'
p1119
sS'speed'
p1120
S'19200'
p1121
ssaa(lp1122
S'robotControl'
p1123
a(dp1124
g98
S'/usr/share/arduino/hardware/arduino'
p1125
sS'bootloader'
p1126
(dp1127
S'extended_fuses'
p1128
S'0xcb'
p1129
sS'high_fuses'
p1130
S'0xd8'
p1131
sS'low_fuses'
p1132
S'0xff'
p1133
sS'lock_bits'
p1134
S'0x2F'
p1135
sS'file'
p1136
S'Caterina-Robot-Control.hex'
p1137
sS'path'
p1138
S'caterina-Arduino_Robot'
p1139
sS'unlock_bits'
p1140
S'0x3F'
p1141
ssS'build'
p1142
(dp1143
S'core'
p1144
S'robot'
p1145
sS'f_cpu'
p1146
S'16000000L'
p1147
sS'vid'
p1148
S'0x2341'
p1149
sS'pid'
p1150
S'0x8038'
p1151
sS'variant'
p1152
S'robot_control'
p1153
sS'mcu'
p1154
S'atmega32u4'
p1155
ssS'name'
p1156
S'Arduino Robot Control'
p1157
sS'upload'
p1158
(dp1159
S'protocol'
p1160
S'avr109'
p1161
sS'maximum_size'
p1162
S'28672'
p1163
sS'speed'
p1164
S'57600'
p1165
sS'disable_flushing'
p1166
S'true'
p1167
ssaa(lp1168
S'robotMotor'
p1169
a(dp1170
g98
S'/usr/share/arduino/hardware/arduino'
p1171
sS'bootloader'
p1172
(dp1173
S'extended_fuses'
p1174
S'0xcb'
p1175
sS'high_fuses'
p1176
S'0xd8'
p1177
sS'low_fuses'
p1178
S'0xff'
p1179
sS'lock_bits'
p1180
S'0x2F'
p1181
sS'file'
p1182
S'Caterina-Robot-Motor.hex'
p1183
sS'path'
p1184
S'caterina-Arduino_Robot'
p1185
sS'unlock_bits'
p1186
S'0x3F'
p1187
ssS'build'
p1188
(dp1189
S'core'
p1190
S'robot'
p1191
sS'f_cpu'
p1192
S'16000000L'
p1193
sS'vid'
p1194
S'0x2341'
p1195
sS'pid'
p1196
S'0x8039'
p1197
sS'variant'
p1198
S'robot_motor'
p1199
sS'mcu'
p1200
S'atmega32u4'
p1201
ssS'name'
p1202
S'Arduino Robot Motor'
p1203
sS'upload'
p1204
(dp1205
S'protocol'
p1206
S'avr109'
p1207
sS'maximum_size'
p1208
S'28672'
p1209
sS'speed'
p1210
S'57600'
p1211
sS'disable_flushing'
p1212
S'true'
p1213
ssaa(lp1214
S'attiny45'
p1215
a(dp1216
g98
S'/usr/share/arduino/hardware/attiny'
p1217
sS'bootloader'
p1218
(dp1219
S'low_fuses'
p1220
S'0x62'
p1221
sS'extended_fuses'
p1222
S'0xff'
p1223
sS'high_fuses'
p1224
S'0xdf'
p1225
ssS'build'
p1226
(dp1227
S'core'
p1228
S'arduino:arduino'
p1229
sS'mcu'
p1230
S'attiny45'
p1231
sS'f_cpu'
p1232
S'1000000L'
p1233
sS'variant'
p1234
S'tiny8'
p1235
ssS'name'
p1236
S'ATtiny45 (internal 1 MHz clock)'
p1237
sS'upload'
p1238
(dp1239
S'maximum_size'
p1240
S'4096'
p1241
ssaa(lp1242
S'attiny45-8'
p1243
a(dp1244
g98
S'/usr/share/arduino/hardware/attiny'
p1245
sS'bootloader'
p1246
(dp1247
S'low_fuses'
p1248
S'0xe2'
p1249
sS'extended_fuses'
p1250
S'0xff'
p1251
sS'high_fuses'
p1252
S'0xdf'
p1253
ssS'build'
p1254
(dp1255
S'core'
p1256
S'arduino:arduino'
p1257
sS'mcu'
p1258
S'attiny45'
p1259
sS'f_cpu'
p1260
S'8000000L'
p1261
sS'variant'
p1262
S'tiny8'
p1263
ssS'name'
p1264
S'ATtiny45 (internal 8 MHz clock)'
p1265
sS'upload'
p1266
(dp1267
S'maximum_size'
p1268
S'4096'
p1269
ssaa(lp1270
S'attiny45-20'
p1271
a(dp1272
g98
S'/usr/share/arduino/hardware/attiny'
p1273
sS'bootloader'
p1274
(dp1275
S'low_fuses'
p1276
S'0xfe'
p1277
sS'extended_fuses'
p1278
S'0xff'
p1279
sS'high_fuses'
p1280
S'0xdf'
p1281
ssS'build'
p1282
(dp1283
S'core'
p1284
S'arduino:arduino'
p1285
sS'mcu'
p1286
S'attiny45'
p1287
sS'f_cpu'
p1288
S'20000000L'
p1289
sS'variant'
p1290
S'tiny8'
p1291
ssS'name'
p1292
S'ATtiny45 (external 20 MHz clock)'
p1293
sS'upload'
p1294
(dp1295
S'maximum_size'
p1296
S'4096'
p1297
ssaa(lp1298
S'attiny85'
p1299
a(dp1300
g98
S'/usr/share/arduino/hardware/attiny'
p1301
sS'bootloader'
p1302
(dp1303
S'low_fuses'
p1304
S'0x62'
p1305
sS'extended_fuses'
p1306
S'0xff'
p1307
sS'high_fuses'
p1308
S'0xdf'
p1309
ssS'build'
p1310
(dp1311
S'core'
p1312
S'arduino:arduino'
p1313
sS'mcu'
p1314
S'attiny85'
p1315
sS'f_cpu'
p1316
S'1000000L'
p1317
sS'variant'
p1318
S'tiny8'
p1319
ssS'name'
p1320
S'ATtiny85 (internal 1 MHz clock)'
p1321
sS'upload'
p1322
(dp1323
S'maximum_size'
p1324
S'8192'
p1325
ssaa(lp1326
S'attiny85-8'
p1327
a(dp1328
g98
S'/usr/share/arduino/hardware/attiny'
p1329
sS'bootloader'
p1330
(dp1331
S'low_fuses'
p1332
S'0xe2'
p1333
sS'extended_fuses'
p1334
S'0xff'
p1335
sS'high_fuses'
p1336
S'0xdf'
p1337
ssS'build'
p1338
(dp1339
S'core'
p1340
S'arduino:arduino'
p1341
sS'mcu'
p1342
S'attiny85'
p1343
sS'f_cpu'
p1344
S'8000000L'
p1345
sS'variant'
p1346
S'tiny8'
p1347
ssS'name'
p1348
S'ATtiny85 (internal 8 MHz clock)'
p1349
sS'upload'
p1350
(dp1351
S'maximum_size'
p1352
S'8192'
p1353
ssaa(lp1354
S'attiny85-20'
p1355
a(dp1356
g98
S'/usr/share/arduino/hardware/attiny'
p1357
sS'bootloader'
p1358
(dp1359
S'low_fuses'
p1360
S'0xfe'
p1361
sS'extended_fuses'
p1362
S'0xff'
p1363
sS'high_fuses'
p1364
S'0xdf'
p1365
ssS'build'
p1366
(dp1367
S'core'
p1368
S'arduino:arduino'
p1369
sS'mcu'
p1370
S'attiny85'
p1371
sS'f_cpu'
p1372
S'20000000L'
p1373
sS'variant'
p1374
S'tiny8'
p1375
ssS'name'
p1376
S'ATtiny85 (external 20 MHz clock)'
p1377
sS'upload'
p1378
(dp1379
S'maximum_size'
p1380
S'8192'
p1381
ssaa(lp1382
S'attiny44'
p1383
a(dp1384
g98
S'/usr/share/arduino/hardware/attiny'
p1385
sS'bootloader'
p1386
(dp1387
S'low_fuses'
p1388
S'0x62'
p1389
sS'extended_fuses'
p1390
S'0xff'
p1391
sS'high_fuses'
p1392
S'0xdf'
p1393
ssS'build'
p1394
(dp1395
S'core'
p1396
S'arduino:arduino'
p1397
sS'mcu'
p1398
S'attiny44'
p1399
sS'f_cpu'
p1400
S'1000000L'
p1401
sS'variant'
p1402
S'tiny14'
p1403
ssS'name'
p1404
S'ATtiny44 (internal 1 MHz clock)'
p1405
sS'upload'
p1406
(dp1407
S'maximum_size'
p1408
S'4096'
p1409
ssaa(lp1410
S'attiny44-8'
p1411
a(dp1412
g98
S'/usr/share/arduino/hardware/attiny'
p1413
sS'bootloader'
p1414
(dp1415
S'low_fuses'
p1416
S'0xe2'
p1417
sS'extended_fuses'
p1418
S'0xff'
p1419
sS'high_fuses'
p1420
S'0xdf'
p1421
ssS'build'
p1422
(dp1423
S'core'
p1424
S'arduino:arduino'
p1425
sS'mcu'
p1426
S'attiny44'
p1427
sS'f_cpu'
p1428
S'8000000L'
p1429
sS'variant'
p1430
S'tiny14'
p1431
ssS'name'
p1432
S'ATtiny44 (internal 8 MHz clock)'
p1433
sS'upload'
p1434
(dp1435
S'maximum_size'
p1436
S'4096'
p1437
ssaa(lp1438
S'attiny44-20'
p1439
a(dp1440
g98
S'/usr/share/arduino/hardware/attiny'
p1441
sS'bootloader'
p1442
(dp1443
S'low_fuses'
p1444
S'0xfe'
p1445
sS'extended_fuses'
p1446
S'0xff'
p1447
sS'high_fuses'
p1448
S'0xdf'
p1449
ssS'build'
p1450
(dp1451
S'core'
p1452
S'arduino:arduino'
p1453
sS'mcu'
p1454
S'attiny44'
p1455
sS'f_cpu'
p1456
S'20000000L'
p1457
sS'variant'
p1458
S'tiny14'
p1459
ssS'name'
p1460
S'ATtiny44 (external 20 MHz clock)'
p1461
sS'upload'
p1462
(dp1463
S'maximum_size'
p1464
S'4096'
p1465
ssaa(lp1466
S'attiny84'
p1467
a(dp1468
g98
S'/usr/share/arduino/hardware/attiny'
p1469
sS'bootloader'
p1470
(dp1471
S'low_fuses'
p1472
S'0x62'
p1473
sS'extended_fuses'
p1474
S'0xff'
p1475
sS'high_fuses'
p1476
S'0xdf'
p1477
ssS'build'
p1478
(dp1479
S'core'
p1480
S'arduino:arduino'
p1481
sS'mcu'
p1482
S'attiny84'
p1483
sS'f_cpu'
p1484
S'1000000L'
p1485
sS'variant'
p1486
S'tiny14'
p1487
ssS'name'
p1488
S'ATtiny84 (internal 1 MHz clock)'
p1489
sS'upload'
p1490
(dp1491
S'maximum_size'
p1492
S'8192'
p1493
ssaa(lp1494
S'attiny84-8'
p1495
a(dp1496
g98
S'/usr/share/arduino/hardware/attiny'
p1497
sS'bootloader'
p1498
(dp1499
S'low_fuses'
p1500
S'0xe2'
p1501
sS'extended_fuses'
p1502
S'0xff'
p1503
sS'high_fuses'
p1504
S'0xdf'
p1505
ssS'build'
p1506
(dp1507
S'core'
p1508
S'arduino:arduino'
p1509
sS'mcu'
p1510
S'attiny84'
p1511
sS'f_cpu'
p1512
S'8000000L'
p1513
sS'variant'
p1514
S'tiny14'
p1515
ssS'name'
p1516
S'ATtiny84 (internal 8 MHz clock)'
p1517
sS'upload'
p1518
(dp1519
S'maximum_size'
p1520
S'8192'
p1521
ssaa(lp1522
S'attiny84-20'
p1523
a(dp1524
g98
S'/usr/share/arduino/hardware/attiny'
p1525
sS'bootloader'
p1526
(dp1527
S'low_fuses'
p1528
S'0xfe'
p1529
sS'extended_fuses'
p1530
S'0xff'
p1531
sS'high_fuses'
p1532
S'0xdf'
p1533
ssS'build'
p1534
(dp1535
S'core'
p1536
S'arduino:arduino'
p1537
sS'mcu'
p1538
S'attiny84'
p1539
sS'f_cpu'
p1540
S'20000000L'
p1541
sS'variant'
p1542
S'tiny14'
p1543
ssS'name'
p1544
S'ATtiny84 (external 20 MHz clock)'
p1545
sS'upload'
p1546
(dp1547
S'maximum_size'
p1548
S'8192'
p1549
ssaatp1550
Rp1551
(dp1552
S'default'
p1553
S'uno'
p1554
sbtp1555
a(S'ldflags'
p1556
g2
(g3
g4
(lp1557
g6
aS'-Wl,-Os'
p1558
aS'-Wl,--gc-sections'
p1559
atp1560
Rp1561
tp1562
a.