(lp0
(S'cppflags'
p1
ccopy_reg
_reconstructor
p2
(cino.utils
SpaceList
p3
c__builtin__
list
p4
(lp5
S'-mmcu=attiny45'
p6
aS'-DF_CPU=8000000L'
p7
aS'-DARDUINO=105'
p8
aS'-I/usr/share/arduino/hardware/arduino/cores/arduino'
p9
aS'-ffunction-sections'
p10
aS'-fdata-sections'
p11
aS'-g'
p12
aS'-Os'
p13
aS'-w'
p14
aS'-I/usr/share/arduino/hardware/arduino/variants/tiny8'
p15
aS'-I/usr/share/arduino/hardware/arduino/cores/arduino'
p16
aS'-I/usr/share/arduino/hardware/arduino/cores/arduino/avr-libc'
p17
atp18
Rp19
tp20
a(S'cc'
p21
S'/usr/share/arduino/hardware/tools/avr/bin/avr-gcc'
p22
tp23
a(S'version.txt'
p24
S'/usr/share/arduino/lib/version.txt'
p25
tp26
a(S'used_libs'
p27
(lp28
S'/usr/share/arduino/hardware/arduino/cores/arduino'
p29
atp30
a(S'cxx'
p31
S'/usr/share/arduino/hardware/tools/avr/bin/avr-g++'
p32
tp33
a(S'make'
p34
S'/usr/share/arduino/hardware/tools/avr/bin/make'
p35
tp36
a(S'build_dir'
p37
S'.build/attiny45-8'
p38
tp39
a(S'arduino_core_dir'
p40
g29
tp41
a(S'boards.txt'
p42
(lp43
S'/usr/share/arduino/hardware/arduino/boards.txt'
p44
aS'/usr/share/arduino/hardware/attiny/boards.txt'
p45
atp46
a(S'cxxflags'
p47
g2
(g3
g4
(lp48
S'-fno-exceptions'
p49
atp50
Rp51
tp52
a(S'arduino_variants_dir'
p53
S'/usr/share/arduino/hardware/arduino/variants'
p54
tp55
a(S'deps'
p56
g2
(g3
g4
(lp57
S'.build/attiny45-8/src/dependencies.d'
p58
aS'.build/attiny45-8/arduino/dependencies.d'
p59
atp60
Rp61
tp62
a(S'ar'
p63
S'/usr/share/arduino/hardware/tools/avr/bin/avr-ar'
p64
tp65
a(S'names'
p66
(dp67
S'cpp'
p68
S'%s.cpp'
p69
sS'obj'
p70
S'%s.o'
p71
sS'deps'
p72
S'%s.d'
p73
sS'lib'
p74
S'lib%s.a'
p75
stp76
a(S'cflags'
p77
g2
(g3
g4
(lp78
tp79
Rp80
tp81
a(S'arduino_libraries_dir'
p82
S'/usr/share/arduino/libraries'
p83
tp84
a(S'arduino_lib_version'
p85
g2
(cino.environment
Version
p86
c__builtin__
tuple
p87
(I1
I0
I5
tp88
tp89
Rp90
tp91
a(S'objcopy'
p92
S'/usr/share/arduino/hardware/tools/avr/bin/avr-objcopy'
p93
tp94
a(S'board_models'
p95
cino.environment
BoardModels
p96
((lp97
(lp98
S'uno'
p99
a(dp100
S'build'
p101
(dp102
S'core'
p103
S'arduino'
p104
sS'mcu'
p105
S'atmega328p'
p106
sS'f_cpu'
p107
S'16000000L'
p108
sS'variant'
p109
S'standard'
p110
ssS'bootloader'
p111
(dp112
S'extended_fuses'
p113
S'0x05'
p114
sS'high_fuses'
p115
S'0xde'
p116
sS'low_fuses'
p117
S'0xff'
p118
sS'lock_bits'
p119
S'0x0F'
p120
sS'file'
p121
S'optiboot_atmega328.hex'
p122
sS'path'
p123
S'optiboot'
p124
sS'unlock_bits'
p125
S'0x3F'
p126
ssS'upload'
p127
(dp128
S'speed'
p129
S'115200'
p130
sS'maximum_size'
p131
S'32256'
p132
sS'protocol'
p133
S'arduino'
p134
ssS'name'
p135
S'Arduino Uno'
p136
sS'_coredir'
p137
S'/usr/share/arduino/hardware/arduino'
p138
saa(lp139
S'atmega328'
p140
a(dp141
S'build'
p142
(dp143
S'core'
p144
S'arduino'
p145
sS'mcu'
p146
S'atmega328p'
p147
sS'f_cpu'
p148
S'16000000L'
p149
sS'variant'
p150
S'standard'
p151
ssS'bootloader'
p152
(dp153
S'extended_fuses'
p154
S'0x05'
p155
sS'high_fuses'
p156
S'0xDA'
p157
sS'low_fuses'
p158
S'0xFF'
p159
sS'lock_bits'
p160
S'0x0F'
p161
sS'file'
p162
S'ATmegaBOOT_168_atmega328.hex'
p163
sS'path'
p164
S'atmega'
p165
sS'unlock_bits'
p166
S'0x3F'
p167
ssS'upload'
p168
(dp169
S'speed'
p170
S'57600'
p171
sS'maximum_size'
p172
S'30720'
p173
sS'protocol'
p174
S'arduino'
p175
ssS'name'
p176
S'Arduino Duemilanove w/ ATmega328'
p177
sg137
S'/usr/share/arduino/hardware/arduino'
p178
saa(lp179
S'diecimila'
p180
a(dp181
S'build'
p182
(dp183
S'core'
p184
S'arduino'
p185
sS'mcu'
p186
S'atmega168'
p187
sS'f_cpu'
p188
S'16000000L'
p189
sS'variant'
p190
S'standard'
p191
ssS'bootloader'
p192
(dp193
S'extended_fuses'
p194
S'0x00'
p195
sS'high_fuses'
p196
S'0xdd'
p197
sS'low_fuses'
p198
S'0xff'
p199
sS'lock_bits'
p200
S'0x0F'
p201
sS'file'
p202
S'ATmegaBOOT_168_diecimila.hex'
p203
sS'path'
p204
S'atmega'
p205
sS'unlock_bits'
p206
S'0x3F'
p207
ssS'upload'
p208
(dp209
S'speed'
p210
S'19200'
p211
sS'maximum_size'
p212
S'14336'
p213
sS'protocol'
p214
S'arduino'
p215
ssS'name'
p216
S'Arduino Diecimila or Duemilanove w/ ATmega168'
p217
sg137
S'/usr/share/arduino/hardware/arduino'
p218
saa(lp219
S'nano328'
p220
a(dp221
S'build'
p222
(dp223
S'core'
p224
S'arduino'
p225
sS'mcu'
p226
S'atmega328p'
p227
sS'f_cpu'
p228
S'16000000L'
p229
sS'variant'
p230
S'eightanaloginputs'
p231
ssS'bootloader'
p232
(dp233
S'extended_fuses'
p234
S'0x05'
p235
sS'high_fuses'
p236
S'0xDA'
p237
sS'low_fuses'
p238
S'0xFF'
p239
sS'lock_bits'
p240
S'0x0F'
p241
sS'file'
p242
S'ATmegaBOOT_168_atmega328.hex'
p243
sS'path'
p244
S'atmega'
p245
sS'unlock_bits'
p246
S'0x3F'
p247
ssS'upload'
p248
(dp249
S'speed'
p250
S'57600'
p251
sS'maximum_size'
p252
S'30720'
p253
sS'protocol'
p254
S'arduino'
p255
ssS'name'
p256
S'Arduino Nano w/ ATmega328'
p257
sg137
S'/usr/share/arduino/hardware/arduino'
p258
saa(lp259
S'nano'
p260
a(dp261
S'build'
p262
(dp263
S'core'
p264
S'arduino'
p265
sS'mcu'
p266
S'atmega168'
p267
sS'f_cpu'
p268
S'16000000L'
p269
sS'variant'
p270
S'eightanaloginputs'
p271
ssS'bootloader'
p272
(dp273
S'extended_fuses'
p274
S'0x00'
p275
sS'high_fuses'
p276
S'0xdd'
p277
sS'low_fuses'
p278
S'0xff'
p279
sS'lock_bits'
p280
S'0x0F'
p281
sS'file'
p282
S'ATmegaBOOT_168_diecimila.hex'
p283
sS'path'
p284
S'atmega'
p285
sS'unlock_bits'
p286
S'0x3F'
p287
ssS'upload'
p288
(dp289
S'speed'
p290
S'19200'
p291
sS'maximum_size'
p292
S'14336'
p293
sS'protocol'
p294
S'arduino'
p295
ssS'name'
p296
S'Arduino Nano w/ ATmega168'
p297
sg137
S'/usr/share/arduino/hardware/arduino'
p298
saa(lp299
S'mega2560'
p300
a(dp301
S'build'
p302
(dp303
S'core'
p304
S'arduino'
p305
sS'mcu'
p306
S'atmega2560'
p307
sS'f_cpu'
p308
S'16000000L'
p309
sS'variant'
p310
S'mega'
p311
ssS'bootloader'
p312
(dp313
S'extended_fuses'
p314
S'0xFD'
p315
sS'high_fuses'
p316
S'0xD8'
p317
sS'low_fuses'
p318
S'0xFF'
p319
sS'lock_bits'
p320
S'0x0F'
p321
sS'file'
p322
S'stk500boot_v2_mega2560.hex'
p323
sS'path'
p324
S'stk500v2'
p325
sS'unlock_bits'
p326
S'0x3F'
p327
ssS'upload'
p328
(dp329
S'speed'
p330
S'115200'
p331
sS'maximum_size'
p332
S'258048'
p333
sS'protocol'
p334
S'wiring'
p335
ssS'name'
p336
S'Arduino Mega 2560 or Mega ADK'
p337
sg137
S'/usr/share/arduino/hardware/arduino'
p338
saa(lp339
S'mega'
p340
a(dp341
S'build'
p342
(dp343
S'core'
p344
S'arduino'
p345
sS'mcu'
p346
S'atmega1280'
p347
sS'f_cpu'
p348
S'16000000L'
p349
sS'variant'
p350
S'mega'
p351
ssS'bootloader'
p352
(dp353
S'extended_fuses'
p354
S'0xF5'
p355
sS'high_fuses'
p356
S'0xDA'
p357
sS'low_fuses'
p358
S'0xFF'
p359
sS'lock_bits'
p360
S'0x0F'
p361
sS'file'
p362
S'ATmegaBOOT_168_atmega1280.hex'
p363
sS'path'
p364
S'atmega'
p365
sS'unlock_bits'
p366
S'0x3F'
p367
ssS'upload'
p368
(dp369
S'speed'
p370
S'57600'
p371
sS'maximum_size'
p372
S'126976'
p373
sS'protocol'
p374
S'arduino'
p375
ssS'name'
p376
S'Arduino Mega (ATmega1280)'
p377
sg137
S'/usr/share/arduino/hardware/arduino'
p378
saa(lp379
S'leonardo'
p380
a(dp381
S'build'
p382
(dp383
S'core'
p384
S'arduino'
p385
sS'f_cpu'
p386
S'16000000L'
p387
sS'vid'
p388
S'0x2341'
p389
sS'pid'
p390
S'0x8036'
p391
sS'variant'
p392
S'leonardo'
p393
sS'mcu'
p394
S'atmega32u4'
p395
ssS'bootloader'
p396
(dp397
S'extended_fuses'
p398
S'0xcb'
p399
sS'high_fuses'
p400
S'0xd8'
p401
sS'low_fuses'
p402
S'0xff'
p403
sS'lock_bits'
p404
S'0x2F'
p405
sS'file'
p406
S'Caterina-Leonardo.hex'
p407
sS'path'
p408
S'caterina'
p409
sS'unlock_bits'
p410
S'0x3F'
p411
ssS'upload'
p412
(dp413
S'speed'
p414
S'57600'
p415
sS'maximum_size'
p416
S'28672'
p417
sS'protocol'
p418
S'avr109'
p419
sS'disable_flushing'
p420
S'true'
p421
ssS'name'
p422
S'Arduino Leonardo'
p423
sg137
S'/usr/share/arduino/hardware/arduino'
p424
saa(lp425
S'esplora'
p426
a(dp427
S'build'
p428
(dp429
S'core'
p430
S'arduino'
p431
sS'f_cpu'
p432
S'16000000L'
p433
sS'vid'
p434
S'0x2341'
p435
sS'pid'
p436
S'0x803C'
p437
sS'variant'
p438
S'leonardo'
p439
sS'mcu'
p440
S'atmega32u4'
p441
ssS'bootloader'
p442
(dp443
S'extended_fuses'
p444
S'0xcb'
p445
sS'high_fuses'
p446
S'0xd8'
p447
sS'low_fuses'
p448
S'0xff'
p449
sS'lock_bits'
p450
S'0x2F'
p451
sS'file'
p452
S'Caterina-Esplora.hex'
p453
sS'path'
p454
S'caterina'
p455
sS'unlock_bits'
p456
S'0x3F'
p457
ssS'upload'
p458
(dp459
S'speed'
p460
S'57600'
p461
sS'maximum_size'
p462
S'28672'
p463
sS'protocol'
p464
S'avr109'
p465
sS'disable_flushing'
p466
S'true'
p467
ssS'name'
p468
S'Arduino Esplora'
p469
sg137
S'/usr/share/arduino/hardware/arduino'
p470
saa(lp471
S'micro'
p472
a(dp473
S'build'
p474
(dp475
S'core'
p476
S'arduino'
p477
sS'f_cpu'
p478
S'16000000L'
p479
sS'vid'
p480
S'0x2341'
p481
sS'pid'
p482
S'0x8037'
p483
sS'variant'
p484
S'micro'
p485
sS'mcu'
p486
S'atmega32u4'
p487
ssS'bootloader'
p488
(dp489
S'extended_fuses'
p490
S'0xcb'
p491
sS'high_fuses'
p492
S'0xd8'
p493
sS'low_fuses'
p494
S'0xff'
p495
sS'lock_bits'
p496
S'0x2F'
p497
sS'file'
p498
S'Caterina-Micro.hex'
p499
sS'path'
p500
S'caterina'
p501
sS'unlock_bits'
p502
S'0x3F'
p503
ssS'upload'
p504
(dp505
S'speed'
p506
S'57600'
p507
sS'maximum_size'
p508
S'28672'
p509
sS'protocol'
p510
S'avr109'
p511
sS'disable_flushing'
p512
S'true'
p513
ssS'name'
p514
S'Arduino Micro'
p515
sg137
S'/usr/share/arduino/hardware/arduino'
p516
saa(lp517
S'mini328'
p518
a(dp519
S'build'
p520
(dp521
S'core'
p522
S'arduino'
p523
sS'mcu'
p524
S'atmega328p'
p525
sS'f_cpu'
p526
S'16000000L'
p527
sS'variant'
p528
S'eightanaloginputs'
p529
ssS'bootloader'
p530
(dp531
S'extended_fuses'
p532
S'0x05'
p533
sS'high_fuses'
p534
S'0xd8'
p535
sS'low_fuses'
p536
S'0xff'
p537
sS'lock_bits'
p538
S'0x0F'
p539
sS'file'
p540
S'optiboot_atmega328-Mini.hex'
p541
sS'path'
p542
S'optiboot'
p543
sS'unlock_bits'
p544
S'0x3F'
p545
ssS'upload'
p546
(dp547
S'speed'
p548
S'115200'
p549
sS'maximum_size'
p550
S'28672'
p551
sS'protocol'
p552
S'arduino'
p553
ssS'name'
p554
S'Arduino Mini w/ ATmega328'
p555
sg137
S'/usr/share/arduino/hardware/arduino'
p556
saa(lp557
S'mini'
p558
a(dp559
S'build'
p560
(dp561
S'core'
p562
S'arduino'
p563
sS'mcu'
p564
S'atmega168'
p565
sS'f_cpu'
p566
S'16000000L'
p567
sS'variant'
p568
S'eightanaloginputs'
p569
ssS'bootloader'
p570
(dp571
S'extended_fuses'
p572
S'0x00'
p573
sS'high_fuses'
p574
S'0xdd'
p575
sS'low_fuses'
p576
S'0xff'
p577
sS'lock_bits'
p578
S'0x0F'
p579
sS'file'
p580
S'ATmegaBOOT_168_ng.hex'
p581
sS'path'
p582
S'atmega'
p583
sS'unlock_bits'
p584
S'0x3F'
p585
ssS'upload'
p586
(dp587
S'speed'
p588
S'19200'
p589
sS'maximum_size'
p590
S'14336'
p591
sS'protocol'
p592
S'arduino'
p593
ssS'name'
p594
S'Arduino Mini w/ ATmega168'
p595
sg137
S'/usr/share/arduino/hardware/arduino'
p596
saa(lp597
S'ethernet'
p598
a(dp599
S'build'
p600
(dp601
S'f_cpu'
p602
S'16000000L'
p603
sS'mcu'
p604
S'atmega328p'
p605
sS'variant'
p606
S'standard'
p607
sS'core'
p608
S'arduino'
p609
ssS'bootloader'
p610
(dp611
S'extended_fuses'
p612
S'0x05'
p613
sS'high_fuses'
p614
S'0xde'
p615
sS'low_fuses'
p616
S'0xff'
p617
sS'lock_bits'
p618
S'0x0F'
p619
sS'file'
p620
S'optiboot_atmega328.hex'
p621
sS'path'
p622
S'optiboot'
p623
sS'unlock_bits'
p624
S'0x3F'
p625
ssS'upload'
p626
(dp627
S'speed'
p628
S'115200'
p629
sS'maximum_size'
p630
S'32256'
p631
sS'protocol'
p632
S'arduino'
p633
ssS'name'
p634
S'Arduino Ethernet'
p635
sg137
S'/usr/share/arduino/hardware/arduino'
p636
saa(lp637
S'fio'
p638
a(dp639
S'build'
p640
(dp641
S'core'
p642
S'arduino'
p643
sS'mcu'
p644
S'atmega328p'
p645
sS'f_cpu'
p646
S'8000000L'
p647
sS'variant'
p648
S'eightanaloginputs'
p649
ssS'bootloader'
p650
(dp651
S'extended_fuses'
p652
S'0x05'
p653
sS'high_fuses'
p654
S'0xDA'
p655
sS'low_fuses'
p656
S'0xFF'
p657
sS'lock_bits'
p658
S'0x0F'
p659
sS'file'
p660
S'ATmegaBOOT_168_atmega328_pro_8MHz.hex'
p661
sS'path'
p662
S'arduino:atmega'
p663
sS'unlock_bits'
p664
S'0x3F'
p665
ssS'upload'
p666
(dp667
S'speed'
p668
S'57600'
p669
sS'maximum_size'
p670
S'30720'
p671
sS'protocol'
p672
S'arduino'
p673
ssS'name'
p674
S'Arduino Fio'
p675
sg137
S'/usr/share/arduino/hardware/arduino'
p676
saa(lp677
S'bt328'
p678
a(dp679
S'build'
p680
(dp681
S'core'
p682
S'arduino'
p683
sS'mcu'
p684
S'atmega328p'
p685
sS'f_cpu'
p686
S'16000000L'
p687
sS'variant'
p688
S'eightanaloginputs'
p689
ssS'bootloader'
p690
(dp691
S'extended_fuses'
p692
S'0x05'
p693
sS'high_fuses'
p694
S'0xd8'
p695
sS'low_fuses'
p696
S'0xff'
p697
sS'lock_bits'
p698
S'0x0F'
p699
sS'file'
p700
S'ATmegaBOOT_168_atmega328_bt.hex'
p701
sS'path'
p702
S'bt'
p703
sS'unlock_bits'
p704
S'0x3F'
p705
ssS'upload'
p706
(dp707
S'speed'
p708
S'19200'
p709
sS'maximum_size'
p710
S'28672'
p711
sS'protocol'
p712
S'arduino'
p713
sS'disable_flushing'
p714
S'true'
p715
ssS'name'
p716
S'Arduino BT w/ ATmega328'
p717
sg137
S'/usr/share/arduino/hardware/arduino'
p718
saa(lp719
S'bt'
p720
a(dp721
S'build'
p722
(dp723
S'core'
p724
S'arduino'
p725
sS'mcu'
p726
S'atmega168'
p727
sS'f_cpu'
p728
S'16000000L'
p729
sS'variant'
p730
S'eightanaloginputs'
p731
ssS'bootloader'
p732
(dp733
S'extended_fuses'
p734
S'0x00'
p735
sS'high_fuses'
p736
S'0xdd'
p737
sS'low_fuses'
p738
S'0xff'
p739
sS'lock_bits'
p740
S'0x0F'
p741
sS'file'
p742
S'ATmegaBOOT_168.hex'
p743
sS'path'
p744
S'bt'
p745
sS'unlock_bits'
p746
S'0x3F'
p747
ssS'upload'
p748
(dp749
S'speed'
p750
S'19200'
p751
sS'maximum_size'
p752
S'14336'
p753
sS'protocol'
p754
S'arduino'
p755
sS'disable_flushing'
p756
S'true'
p757
ssS'name'
p758
S'Arduino BT w/ ATmega168'
p759
sg137
S'/usr/share/arduino/hardware/arduino'
p760
saa(lp761
S'LilyPadUSB'
p762
a(dp763
S'build'
p764
(dp765
S'core'
p766
S'arduino'
p767
sS'f_cpu'
p768
S'8000000L'
p769
sS'vid'
p770
S'0x1B4F'
p771
sS'pid'
p772
S'0x9208'
p773
sS'variant'
p774
S'leonardo'
p775
sS'mcu'
p776
S'atmega32u4'
p777
ssS'bootloader'
p778
(dp779
S'extended_fuses'
p780
S'0xce'
p781
sS'high_fuses'
p782
S'0xd8'
p783
sS'low_fuses'
p784
S'0xff'
p785
sS'lock_bits'
p786
S'0x2F'
p787
sS'file'
p788
S'Caterina-LilyPadUSB.hex'
p789
sS'path'
p790
S'caterina-LilyPadUSB'
p791
sS'unlock_bits'
p792
S'0x3F'
p793
ssS'upload'
p794
(dp795
S'speed'
p796
S'57600'
p797
sS'maximum_size'
p798
S'28672'
p799
sS'protocol'
p800
S'avr109'
p801
sS'disable_flushing'
p802
S'true'
p803
ssS'name'
p804
S'LilyPad Arduino USB'
p805
sg137
S'/usr/share/arduino/hardware/arduino'
p806
saa(lp807
S'lilypad328'
p808
a(dp809
S'build'
p810
(dp811
S'core'
p812
S'arduino'
p813
sS'mcu'
p814
S'atmega328p'
p815
sS'f_cpu'
p816
S'8000000L'
p817
sS'variant'
p818
S'standard'
p819
ssS'bootloader'
p820
(dp821
S'extended_fuses'
p822
S'0x05'
p823
sS'high_fuses'
p824
S'0xDA'
p825
sS'low_fuses'
p826
S'0xFF'
p827
sS'lock_bits'
p828
S'0x0F'
p829
sS'file'
p830
S'ATmegaBOOT_168_atmega328_pro_8MHz.hex'
p831
sS'path'
p832
S'atmega'
p833
sS'unlock_bits'
p834
S'0x3F'
p835
ssS'upload'
p836
(dp837
S'speed'
p838
S'57600'
p839
sS'maximum_size'
p840
S'30720'
p841
sS'protocol'
p842
S'arduino'
p843
ssS'name'
p844
S'LilyPad Arduino w/ ATmega328'
p845
sg137
S'/usr/share/arduino/hardware/arduino'
p846
saa(lp847
S'lilypad'
p848
a(dp849
S'build'
p850
(dp851
S'core'
p852
S'arduino'
p853
sS'mcu'
p854
S'atmega168'
p855
sS'f_cpu'
p856
S'8000000L'
p857
sS'variant'
p858
S'standard'
p859
ssS'bootloader'
p860
(dp861
S'extended_fuses'
p862
S'0x00'
p863
sS'high_fuses'
p864
S'0xdd'
p865
sS'low_fuses'
p866
S'0xe2'
p867
sS'lock_bits'
p868
S'0x0F'
p869
sS'file'
p870
S'LilyPadBOOT_168.hex'
p871
sS'path'
p872
S'lilypad'
p873
sS'unlock_bits'
p874
S'0x3F'
p875
ssS'upload'
p876
(dp877
S'speed'
p878
S'19200'
p879
sS'maximum_size'
p880
S'14336'
p881
sS'protocol'
p882
S'arduino'
p883
ssS'name'
p884
S'LilyPad Arduino w/ ATmega168'
p885
sg137
S'/usr/share/arduino/hardware/arduino'
p886
saa(lp887
S'pro5v328'
p888
a(dp889
S'build'
p890
(dp891
S'core'
p892
S'arduino'
p893
sS'mcu'
p894
S'atmega328p'
p895
sS'f_cpu'
p896
S'16000000L'
p897
sS'variant'
p898
S'standard'
p899
ssS'bootloader'
p900
(dp901
S'extended_fuses'
p902
S'0x05'
p903
sS'high_fuses'
p904
S'0xDA'
p905
sS'low_fuses'
p906
S'0xFF'
p907
sS'lock_bits'
p908
S'0x0F'
p909
sS'file'
p910
S'ATmegaBOOT_168_atmega328.hex'
p911
sS'path'
p912
S'atmega'
p913
sS'unlock_bits'
p914
S'0x3F'
p915
ssS'upload'
p916
(dp917
S'speed'
p918
S'57600'
p919
sS'maximum_size'
p920
S'30720'
p921
sS'protocol'
p922
S'arduino'
p923
ssS'name'
p924
S'Arduino Pro or Pro Mini (5V, 16 MHz) w/ ATmega328'
p925
sg137
S'/usr/share/arduino/hardware/arduino'
p926
saa(lp927
S'pro5v'
p928
a(dp929
S'build'
p930
(dp931
S'core'
p932
S'arduino'
p933
sS'mcu'
p934
S'atmega168'
p935
sS'f_cpu'
p936
S'16000000L'
p937
sS'variant'
p938
S'standard'
p939
ssS'bootloader'
p940
(dp941
S'extended_fuses'
p942
S'0x00'
p943
sS'high_fuses'
p944
S'0xdd'
p945
sS'low_fuses'
p946
S'0xff'
p947
sS'lock_bits'
p948
S'0x0F'
p949
sS'file'
p950
S'ATmegaBOOT_168_diecimila.hex'
p951
sS'path'
p952
S'atmega'
p953
sS'unlock_bits'
p954
S'0x3F'
p955
ssS'upload'
p956
(dp957
S'speed'
p958
S'19200'
p959
sS'maximum_size'
p960
S'14336'
p961
sS'protocol'
p962
S'arduino'
p963
ssS'name'
p964
S'Arduino Pro or Pro Mini (5V, 16 MHz) w/ ATmega168'
p965
sg137
S'/usr/share/arduino/hardware/arduino'
p966
saa(lp967
S'pro328'
p968
a(dp969
S'build'
p970
(dp971
S'core'
p972
S'arduino'
p973
sS'mcu'
p974
S'atmega328p'
p975
sS'f_cpu'
p976
S'8000000L'
p977
sS'variant'
p978
S'standard'
p979
ssS'bootloader'
p980
(dp981
S'extended_fuses'
p982
S'0x05'
p983
sS'high_fuses'
p984
S'0xDA'
p985
sS'low_fuses'
p986
S'0xFF'
p987
sS'lock_bits'
p988
S'0x0F'
p989
sS'file'
p990
S'ATmegaBOOT_168_atmega328_pro_8MHz.hex'
p991
sS'path'
p992
S'atmega'
p993
sS'unlock_bits'
p994
S'0x3F'
p995
ssS'upload'
p996
(dp997
S'speed'
p998
S'57600'
p999
sS'maximum_size'
p1000
S'30720'
p1001
sS'protocol'
p1002
S'arduino'
p1003
ssS'name'
p1004
S'Arduino Pro or Pro Mini (3.3V, 8 MHz) w/ ATmega328'
p1005
sg137
S'/usr/share/arduino/hardware/arduino'
p1006
saa(lp1007
S'pro'
p1008
a(dp1009
S'build'
p1010
(dp1011
S'core'
p1012
S'arduino'
p1013
sS'mcu'
p1014
S'atmega168'
p1015
sS'f_cpu'
p1016
S'8000000L'
p1017
sS'variant'
p1018
S'standard'
p1019
ssS'bootloader'
p1020
(dp1021
S'extended_fuses'
p1022
S'0x00'
p1023
sS'high_fuses'
p1024
S'0xdd'
p1025
sS'low_fuses'
p1026
S'0xc6'
p1027
sS'lock_bits'
p1028
S'0x0F'
p1029
sS'file'
p1030
S'ATmegaBOOT_168_pro_8MHz.hex'
p1031
sS'path'
p1032
S'atmega'
p1033
sS'unlock_bits'
p1034
S'0x3F'
p1035
ssS'upload'
p1036
(dp1037
S'speed'
p1038
S'19200'
p1039
sS'maximum_size'
p1040
S'14336'
p1041
sS'protocol'
p1042
S'arduino'
p1043
ssS'name'
p1044
S'Arduino Pro or Pro Mini (3.3V, 8 MHz) w/ ATmega168'
p1045
sg137
S'/usr/share/arduino/hardware/arduino'
p1046
saa(lp1047
S'atmega168'
p1048
a(dp1049
S'build'
p1050
(dp1051
S'core'
p1052
S'arduino'
p1053
sS'mcu'
p1054
S'atmega168'
p1055
sS'f_cpu'
p1056
S'16000000L'
p1057
sS'variant'
p1058
S'standard'
p1059
ssS'bootloader'
p1060
(dp1061
S'extended_fuses'
p1062
S'0x00'
p1063
sS'high_fuses'
p1064
S'0xdd'
p1065
sS'low_fuses'
p1066
S'0xff'
p1067
sS'lock_bits'
p1068
S'0x0F'
p1069
sS'file'
p1070
S'ATmegaBOOT_168_ng.hex'
p1071
sS'path'
p1072
S'atmega'
p1073
sS'unlock_bits'
p1074
S'0x3F'
p1075
ssS'upload'
p1076
(dp1077
S'speed'
p1078
S'19200'
p1079
sS'maximum_size'
p1080
S'14336'
p1081
sS'protocol'
p1082
S'arduino'
p1083
ssS'name'
p1084
S'Arduino NG or older w/ ATmega168'
p1085
sg137
S'/usr/share/arduino/hardware/arduino'
p1086
saa(lp1087
S'atmega8'
p1088
a(dp1089
S'build'
p1090
(dp1091
S'core'
p1092
S'arduino'
p1093
sS'mcu'
p1094
S'atmega8'
p1095
sS'f_cpu'
p1096
S'16000000L'
p1097
sS'variant'
p1098
S'standard'
p1099
ssS'bootloader'
p1100
(dp1101
S'high_fuses'
p1102
S'0xca'
p1103
sS'low_fuses'
p1104
S'0xdf'
p1105
sS'lock_bits'
p1106
S'0x0F'
p1107
sS'file'
p1108
S'ATmegaBOOT-prod-firmware-2009-11-07.hex'
p1109
sS'path'
p1110
S'atmega8'
p1111
sS'unlock_bits'
p1112
S'0x3F'
p1113
ssS'upload'
p1114
(dp1115
S'speed'
p1116
S'19200'
p1117
sS'maximum_size'
p1118
S'7168'
p1119
sS'protocol'
p1120
S'arduino'
p1121
ssS'name'
p1122
S'Arduino NG or older w/ ATmega8'
p1123
sg137
S'/usr/share/arduino/hardware/arduino'
p1124
saa(lp1125
S'robotControl'
p1126
a(dp1127
S'build'
p1128
(dp1129
S'core'
p1130
S'robot'
p1131
sS'f_cpu'
p1132
S'16000000L'
p1133
sS'vid'
p1134
S'0x2341'
p1135
sS'pid'
p1136
S'0x8038'
p1137
sS'variant'
p1138
S'robot_control'
p1139
sS'mcu'
p1140
S'atmega32u4'
p1141
ssS'bootloader'
p1142
(dp1143
S'extended_fuses'
p1144
S'0xcb'
p1145
sS'high_fuses'
p1146
S'0xd8'
p1147
sS'low_fuses'
p1148
S'0xff'
p1149
sS'lock_bits'
p1150
S'0x2F'
p1151
sS'file'
p1152
S'Caterina-Robot-Control.hex'
p1153
sS'path'
p1154
S'caterina-Arduino_Robot'
p1155
sS'unlock_bits'
p1156
S'0x3F'
p1157
ssS'upload'
p1158
(dp1159
S'speed'
p1160
S'57600'
p1161
sS'maximum_size'
p1162
S'28672'
p1163
sS'protocol'
p1164
S'avr109'
p1165
sS'disable_flushing'
p1166
S'true'
p1167
ssS'name'
p1168
S'Arduino Robot Control'
p1169
sg137
S'/usr/share/arduino/hardware/arduino'
p1170
saa(lp1171
S'robotMotor'
p1172
a(dp1173
S'build'
p1174
(dp1175
S'core'
p1176
S'robot'
p1177
sS'f_cpu'
p1178
S'16000000L'
p1179
sS'vid'
p1180
S'0x2341'
p1181
sS'pid'
p1182
S'0x8039'
p1183
sS'variant'
p1184
S'robot_motor'
p1185
sS'mcu'
p1186
S'atmega32u4'
p1187
ssS'bootloader'
p1188
(dp1189
S'extended_fuses'
p1190
S'0xcb'
p1191
sS'high_fuses'
p1192
S'0xd8'
p1193
sS'low_fuses'
p1194
S'0xff'
p1195
sS'lock_bits'
p1196
S'0x2F'
p1197
sS'file'
p1198
S'Caterina-Robot-Motor.hex'
p1199
sS'path'
p1200
S'caterina-Arduino_Robot'
p1201
sS'unlock_bits'
p1202
S'0x3F'
p1203
ssS'upload'
p1204
(dp1205
S'speed'
p1206
S'57600'
p1207
sS'maximum_size'
p1208
S'28672'
p1209
sS'protocol'
p1210
S'avr109'
p1211
sS'disable_flushing'
p1212
S'true'
p1213
ssS'name'
p1214
S'Arduino Robot Motor'
p1215
sg137
S'/usr/share/arduino/hardware/arduino'
p1216
saa(lp1217
S'attiny45'
p1218
a(dp1219
S'build'
p1220
(dp1221
S'core'
p1222
S'arduino:arduino'
p1223
sS'mcu'
p1224
S'attiny45'
p1225
sS'f_cpu'
p1226
S'1000000L'
p1227
sS'variant'
p1228
S'tiny8'
p1229
ssS'bootloader'
p1230
(dp1231
S'low_fuses'
p1232
S'0x62'
p1233
sS'extended_fuses'
p1234
S'0xff'
p1235
sS'high_fuses'
p1236
S'0xdf'
p1237
ssS'upload'
p1238
(dp1239
S'maximum_size'
p1240
S'4096'
p1241
ssS'name'
p1242
S'ATtiny45 (internal 1 MHz clock)'
p1243
sg137
S'/usr/share/arduino/hardware/attiny'
p1244
saa(lp1245
S'attiny45-8'
p1246
a(dp1247
S'build'
p1248
(dp1249
S'core'
p1250
S'arduino:arduino'
p1251
sS'mcu'
p1252
S'attiny45'
p1253
sS'f_cpu'
p1254
S'8000000L'
p1255
sS'variant'
p1256
S'tiny8'
p1257
ssS'bootloader'
p1258
(dp1259
S'low_fuses'
p1260
S'0xe2'
p1261
sS'extended_fuses'
p1262
S'0xff'
p1263
sS'high_fuses'
p1264
S'0xdf'
p1265
ssS'upload'
p1266
(dp1267
S'maximum_size'
p1268
S'4096'
p1269
ssS'name'
p1270
S'ATtiny45 (internal 8 MHz clock)'
p1271
sg137
S'/usr/share/arduino/hardware/attiny'
p1272
saa(lp1273
S'attiny45-20'
p1274
a(dp1275
S'build'
p1276
(dp1277
S'core'
p1278
S'arduino:arduino'
p1279
sS'mcu'
p1280
S'attiny45'
p1281
sS'f_cpu'
p1282
S'20000000L'
p1283
sS'variant'
p1284
S'tiny8'
p1285
ssS'bootloader'
p1286
(dp1287
S'low_fuses'
p1288
S'0xfe'
p1289
sS'extended_fuses'
p1290
S'0xff'
p1291
sS'high_fuses'
p1292
S'0xdf'
p1293
ssS'upload'
p1294
(dp1295
S'maximum_size'
p1296
S'4096'
p1297
ssS'name'
p1298
S'ATtiny45 (external 20 MHz clock)'
p1299
sg137
S'/usr/share/arduino/hardware/attiny'
p1300
saa(lp1301
S'attiny85'
p1302
a(dp1303
S'build'
p1304
(dp1305
S'core'
p1306
S'arduino:arduino'
p1307
sS'mcu'
p1308
S'attiny85'
p1309
sS'f_cpu'
p1310
S'1000000L'
p1311
sS'variant'
p1312
S'tiny8'
p1313
ssS'bootloader'
p1314
(dp1315
S'low_fuses'
p1316
S'0x62'
p1317
sS'extended_fuses'
p1318
S'0xff'
p1319
sS'high_fuses'
p1320
S'0xdf'
p1321
ssS'upload'
p1322
(dp1323
S'maximum_size'
p1324
S'8192'
p1325
ssS'name'
p1326
S'ATtiny85 (internal 1 MHz clock)'
p1327
sg137
S'/usr/share/arduino/hardware/attiny'
p1328
saa(lp1329
S'attiny85-8'
p1330
a(dp1331
S'build'
p1332
(dp1333
S'core'
p1334
S'arduino:arduino'
p1335
sS'mcu'
p1336
S'attiny85'
p1337
sS'f_cpu'
p1338
S'8000000L'
p1339
sS'variant'
p1340
S'tiny8'
p1341
ssS'bootloader'
p1342
(dp1343
S'low_fuses'
p1344
S'0xe2'
p1345
sS'extended_fuses'
p1346
S'0xff'
p1347
sS'high_fuses'
p1348
S'0xdf'
p1349
ssS'upload'
p1350
(dp1351
S'maximum_size'
p1352
S'8192'
p1353
ssS'name'
p1354
S'ATtiny85 (internal 8 MHz clock)'
p1355
sg137
S'/usr/share/arduino/hardware/attiny'
p1356
saa(lp1357
S'attiny85-20'
p1358
a(dp1359
S'build'
p1360
(dp1361
S'core'
p1362
S'arduino:arduino'
p1363
sS'mcu'
p1364
S'attiny85'
p1365
sS'f_cpu'
p1366
S'20000000L'
p1367
sS'variant'
p1368
S'tiny8'
p1369
ssS'bootloader'
p1370
(dp1371
S'low_fuses'
p1372
S'0xfe'
p1373
sS'extended_fuses'
p1374
S'0xff'
p1375
sS'high_fuses'
p1376
S'0xdf'
p1377
ssS'upload'
p1378
(dp1379
S'maximum_size'
p1380
S'8192'
p1381
ssS'name'
p1382
S'ATtiny85 (external 20 MHz clock)'
p1383
sg137
S'/usr/share/arduino/hardware/attiny'
p1384
saa(lp1385
S'attiny44'
p1386
a(dp1387
S'build'
p1388
(dp1389
S'core'
p1390
S'arduino:arduino'
p1391
sS'mcu'
p1392
S'attiny44'
p1393
sS'f_cpu'
p1394
S'1000000L'
p1395
sS'variant'
p1396
S'tiny14'
p1397
ssS'bootloader'
p1398
(dp1399
S'low_fuses'
p1400
S'0x62'
p1401
sS'extended_fuses'
p1402
S'0xff'
p1403
sS'high_fuses'
p1404
S'0xdf'
p1405
ssS'upload'
p1406
(dp1407
S'maximum_size'
p1408
S'4096'
p1409
ssS'name'
p1410
S'ATtiny44 (internal 1 MHz clock)'
p1411
sg137
S'/usr/share/arduino/hardware/attiny'
p1412
saa(lp1413
S'attiny44-8'
p1414
a(dp1415
S'build'
p1416
(dp1417
S'core'
p1418
S'arduino:arduino'
p1419
sS'mcu'
p1420
S'attiny44'
p1421
sS'f_cpu'
p1422
S'8000000L'
p1423
sS'variant'
p1424
S'tiny14'
p1425
ssS'bootloader'
p1426
(dp1427
S'low_fuses'
p1428
S'0xe2'
p1429
sS'extended_fuses'
p1430
S'0xff'
p1431
sS'high_fuses'
p1432
S'0xdf'
p1433
ssS'upload'
p1434
(dp1435
S'maximum_size'
p1436
S'4096'
p1437
ssS'name'
p1438
S'ATtiny44 (internal 8 MHz clock)'
p1439
sg137
S'/usr/share/arduino/hardware/attiny'
p1440
saa(lp1441
S'attiny44-20'
p1442
a(dp1443
S'build'
p1444
(dp1445
S'core'
p1446
S'arduino:arduino'
p1447
sS'mcu'
p1448
S'attiny44'
p1449
sS'f_cpu'
p1450
S'20000000L'
p1451
sS'variant'
p1452
S'tiny14'
p1453
ssS'bootloader'
p1454
(dp1455
S'low_fuses'
p1456
S'0xfe'
p1457
sS'extended_fuses'
p1458
S'0xff'
p1459
sS'high_fuses'
p1460
S'0xdf'
p1461
ssS'upload'
p1462
(dp1463
S'maximum_size'
p1464
S'4096'
p1465
ssS'name'
p1466
S'ATtiny44 (external 20 MHz clock)'
p1467
sg137
S'/usr/share/arduino/hardware/attiny'
p1468
saa(lp1469
S'attiny84'
p1470
a(dp1471
S'build'
p1472
(dp1473
S'core'
p1474
S'arduino:arduino'
p1475
sS'mcu'
p1476
S'attiny84'
p1477
sS'f_cpu'
p1478
S'1000000L'
p1479
sS'variant'
p1480
S'tiny14'
p1481
ssS'bootloader'
p1482
(dp1483
S'low_fuses'
p1484
S'0x62'
p1485
sS'extended_fuses'
p1486
S'0xff'
p1487
sS'high_fuses'
p1488
S'0xdf'
p1489
ssS'upload'
p1490
(dp1491
S'maximum_size'
p1492
S'8192'
p1493
ssS'name'
p1494
S'ATtiny84 (internal 1 MHz clock)'
p1495
sg137
S'/usr/share/arduino/hardware/attiny'
p1496
saa(lp1497
S'attiny84-8'
p1498
a(dp1499
S'build'
p1500
(dp1501
S'core'
p1502
S'arduino:arduino'
p1503
sS'mcu'
p1504
S'attiny84'
p1505
sS'f_cpu'
p1506
S'8000000L'
p1507
sS'variant'
p1508
S'tiny14'
p1509
ssS'bootloader'
p1510
(dp1511
S'low_fuses'
p1512
S'0xe2'
p1513
sS'extended_fuses'
p1514
S'0xff'
p1515
sS'high_fuses'
p1516
S'0xdf'
p1517
ssS'upload'
p1518
(dp1519
S'maximum_size'
p1520
S'8192'
p1521
ssS'name'
p1522
S'ATtiny84 (internal 8 MHz clock)'
p1523
sg137
S'/usr/share/arduino/hardware/attiny'
p1524
saa(lp1525
S'attiny84-20'
p1526
a(dp1527
S'build'
p1528
(dp1529
S'core'
p1530
S'arduino:arduino'
p1531
sS'mcu'
p1532
S'attiny84'
p1533
sS'f_cpu'
p1534
S'20000000L'
p1535
sS'variant'
p1536
S'tiny14'
p1537
ssS'bootloader'
p1538
(dp1539
S'low_fuses'
p1540
S'0xfe'
p1541
sS'extended_fuses'
p1542
S'0xff'
p1543
sS'high_fuses'
p1544
S'0xdf'
p1545
ssS'upload'
p1546
(dp1547
S'maximum_size'
p1548
S'8192'
p1549
ssS'name'
p1550
S'ATtiny84 (external 20 MHz clock)'
p1551
sg137
S'/usr/share/arduino/hardware/attiny'
p1552
saatp1553
Rp1554
(dp1555
S'default'
p1556
S'uno'
p1557
sbtp1558
a(S'ldflags'
p1559
g2
(g3
g4
(lp1560
g6
aS'-Wl,-Os'
p1561
aS'-Wl,--gc-sections'
p1562
atp1563
Rp1564
tp1565
a.